(lp1
ccopy_reg
_reconstructor
p2
(cDNAClasses
TLobject
p3
c__builtin__
object
p4
NtRp5
(dp6
S'TLstart'
p7
I62
sS'induced_mean'
p8
cnumpy.core.multiarray
scalar
p9
(cnumpy
dtype
p10
(S'f8'
I0
I1
tRp11
(I3
S'<'
NNNI-1
I-1
I0
tbS'\x00\x00\x00\x00\x00\xc0g@'
tRp12
sS'name'
p13
S'celB_LII-10'
p14
sS'framesums'
p15
(lp16
F95.599949073516427
aF447.09979934099073
aF304.70481570351541
asS'sequence'
p17
S'CTAGAAAGGCCTACCCCTTAGGCTTTATGCAACATGTACCACAATAATGGAGTTTTGAACATATGCCCAGCATAAGCCCATTTGCCGGCAAGCCGGTCGATCCGGACCGTCTTGTCAATATCGACGCCCTGCTTGACGCCTATTATACCCGCAAGCCTGACCCCGCCATTGCAACGCAGCGCGTGGCGTTTGGCACGTCGGGGCATCGTGGTTCCTCGCTGACCACCAGCTTCAATGAAAACCACATCCTGTCGATCAGCCAGGCGATTGCCGATTACCGCAAGGGCGCGGGCATCACCGGGCCGCTGTTCATCGGCATTGACACCCATGCGCTGTCGCGGCCGGCGTTGAAATCCGCGCTGGAAGTGTTCGCGGCCAATGGCGTGGAAGTCCGTATCGACGCGCAGGACGGCTATACCCCCACGCCGGTCATCTCGCACGCGATCCTGACCTATAACCGTGACCGCAGCAGTGACCTGGCCGATGGCGTGGTGATCACCCCGTCGCATAACCCGCCGGAAGATGGCGGCTACAAGTACAATCCCCCCCATGGCGGCCCGGCGGATACCGACATCACCAAGGTGGTGGAAACTGCGGCCAACGACTACATGGCCAAAAAGATGGAAGGCGTGAAGCGCGTCAGTTTCGAGGACGCGCTGAAGGCCCCCACCACGAAGCGCCATGACTACATCACGCCGTATGTGGATGACCTGGCCGCCGTGGTGGACATGGACGTGATCCGTGAATCCGGCGTGTCCATCGGCATTGATCCGCTGGGTGGGGCCGCAGTGGATTACTGGCAGCCGATCATCGACAAATACGGCATCAACGCCACGATCGTCAGCAAGGAAGTGGACCCGACCTTCCGCTTCATGACCGCTGACTGGGACGGGCAGATCCGCATGGACTGTTCCTCCCCCTACGCCATGGCGCGCCTTGTCGGGATGAAGGACAAATTCGACATCGCCTTCGCCAATGATACCGATGCCGACCGCCATGGCATCGTATCGGGCAAGTACGGGCTTATGAACCCCAACCACTATCTGGCTGTCGCGATTGAATACCTGTTCAACAATCGCGAAAACTGGAATGCCAGCGCGGGCGTGGGCAAGACGGTGGTCAGCAGCAGCATGATCGACCGCGTGGCCAAGGAAATCGGCCGCAAGCTGGTGGAAGTGCCGGTCGGGTTCAAGTGGTTTGTCGATGGGCTGTACAACGGCACGCTGGGCTTTGGCGGTGAAGAAAGCGCGGGCGCGTCCTTCCTGCGCCGTGCCGGCACGGTGTGGAGCACGGACAAGGACGGCATCATCCTTGGCCTGCTGGCAGCCGAGATCACGGCCCGCACCAAGCGCACCCCCGGTGCGGCGTATGAGGACATGACCAGACGCCTGGGCACGCCGTACTACGCACGGATCGACGCCCCGGCCGACCCGGAACAGAAGGCCATCCTGAAAAACCTTTCGCCCGAGCAGATCGGCATGACCGAACTGGCGGGTGAGCCGATCCTCAGCACGCTGACCAACGCACCGGGCAACGGGGCGGCCATTGGCGGGCTGAAGGTTTCGGCAAAGGACGGCTGGTTTGCCGCCCGTCCGTCGGGTACGGAAAACGTCTATAAGATCTATGCCGAAAGCTTCAAGAGTGCTGCGCACCTCAAGGCCATCCAGACCGAGGCACAGGATGCGATTTCCGCCCTGTTCGCCAAGGCTGCCCAGAAAAACGCTGGCTATTTAATTAAATAA'
p18
sS'TSstart'
p19
I30
sS'dataset'
p20
S'Synthetic operon'
p21
sS'utr'
p22
S'LII-10'
p23
sS'induced_list'
p24
(lp25
F180
aF200
aS''
aS''
asS'mystarts'
p26
(lp27
(lp28
I3
aI24
aI51
aI81
aa(lp29
I16
aa(lp30
I32
aasS'uninduced'
p31
I0
sS'gene'
p32
S'celB'
p33
sS'myrates'
p34
(lp35
(lp36
F3.9642208194493911
aF12.601289734585871
aF1.1340931128255322e-05
aF79.034427178550033
aa(lp37
F447.09979934099073
aa(lp38
F304.70481570351541
aasS'frame'
p39
I2
sbag2
(g3
g4
NtRp40
(dp41
g7
I60
sg8
g9
(g11
S'\x00\x00\x00\x00\x00 \\@'
tRp42
sg13
S'celB_LII-12'
p43
sg15
(lp44
F675.40317546033646
aF526.14406045175565
aI0
asg17
S'CTAGAAAGGCCTACCCCTTAGGCTTTATGCAACATGTCCAATAATAATGGAGTATAACATATGCCCAGCATAAGCCCATTTGCCGGCAAGCCGGTCGATCCGGACCGTCTTGTCAATATCGACGCCCTGCTTGACGCCTATTATACCCGCAAGCCTGACCCCGCCATTGCAACGCAGCGCGTGGCGTTTGGCACGTCGGGGCATCGTGGTTCCTCGCTGACCACCAGCTTCAATGAAAACCACATCCTGTCGATCAGCCAGGCGATTGCCGATTACCGCAAGGGCGCGGGCATCACCGGGCCGCTGTTCATCGGCATTGACACCCATGCGCTGTCGCGGCCGGCGTTGAAATCCGCGCTGGAAGTGTTCGCGGCCAATGGCGTGGAAGTCCGTATCGACGCGCAGGACGGCTATACCCCCACGCCGGTCATCTCGCACGCGATCCTGACCTATAACCGTGACCGCAGCAGTGACCTGGCCGATGGCGTGGTGATCACCCCGTCGCATAACCCGCCGGAAGATGGCGGCTACAAGTACAATCCCCCCCATGGCGGCCCGGCGGATACCGACATCACCAAGGTGGTGGAAACTGCGGCCAACGACTACATGGCCAAAAAGATGGAAGGCGTGAAGCGCGTCAGTTTCGAGGACGCGCTGAAGGCCCCCACCACGAAGCGCCATGACTACATCACGCCGTATGTGGATGACCTGGCCGCCGTGGTGGACATGGACGTGATCCGTGAATCCGGCGTGTCCATCGGCATTGATCCGCTGGGTGGGGCCGCAGTGGATTACTGGCAGCCGATCATCGACAAATACGGCATCAACGCCACGATCGTCAGCAAGGAAGTGGACCCGACCTTCCGCTTCATGACCGCTGACTGGGACGGGCAGATCCGCATGGACTGTTCCTCCCCCTACGCCATGGCGCGCCTTGTCGGGATGAAGGACAAATTCGACATCGCCTTCGCCAATGATACCGATGCCGACCGCCATGGCATCGTATCGGGCAAGTACGGGCTTATGAACCCCAACCACTATCTGGCTGTCGCGATTGAATACCTGTTCAACAATCGCGAAAACTGGAATGCCAGCGCGGGCGTGGGCAAGACGGTGGTCAGCAGCAGCATGATCGACCGCGTGGCCAAGGAAATCGGCCGCAAGCTGGTGGAAGTGCCGGTCGGGTTCAAGTGGTTTGTCGATGGGCTGTACAACGGCACGCTGGGCTTTGGCGGTGAAGAAAGCGCGGGCGCGTCCTTCCTGCGCCGTGCCGGCACGGTGTGGAGCACGGACAAGGACGGCATCATCCTTGGCCTGCTGGCAGCCGAGATCACGGCCCGCACCAAGCGCACCCCCGGTGCGGCGTATGAGGACATGACCAGACGCCTGGGCACGCCGTACTACGCACGGATCGACGCCCCGGCCGACCCGGAACAGAAGGCCATCCTGAAAAACCTTTCGCCCGAGCAGATCGGCATGACCGAACTGGCGGGTGAGCCGATCCTCAGCACGCTGACCAACGCACCGGGCAACGGGGCGGCCATTGGCGGGCTGAAGGTTTCGGCAAAGGACGGCTGGTTTGCCGCCCGTCCGTCGGGTACGGAAAACGTCTATAAGATCTATGCCGAAAGCTTCAAGAGTGCTGCGCACCTCAAGGCCATCCAGACCGAGGCACAGGATGCGATTTCCGCCCTGTTCGCCAAGGCTGCCCAGAAAAACGCTGGCTATTTAATTAAATAA'
p45
sg19
I30
sg20
g21
sg22
S'LII-12'
p46
sg24
(lp47
F100
aF125
aS''
aS''
asg26
(lp48
(lp49
I3
aI30
aa(lp50
I16
aI49
aI79
aa(lp51
asg31
I0
sg32
g33
sg34
(lp52
(lp53
F1.4080500595809502
aF673.99512540075546
aa(lp54
F447.09979934099073
aF0.009833932214884827
aF79.034427178550033
aa(lp55
asg39
I0
sbag2
(g3
g4
NtRp56
(dp57
g7
I63
sg8
g9
(g11
S'\x00\x00\x00\x00\x00\xc0R@'
tRp58
sg13
S'celB_LIV-1'
p59
sg15
(lp60
F324.95810418548831
aF108.68600903818069
aI0
asg17
S'CTAGAAAGGCCTACCCCTTAGGCTTTATGCAACATGTACTATAATAATCGAGGTCATGAACATATGCCCAGCATAAGCCCATTTGCCGGCAAGCCGGTCGATCCGGACCGTCTTGTCAATATCGACGCCCTGCTTGACGCCTATTATACCCGCAAGCCTGACCCCGCCATTGCAACGCAGCGCGTGGCGTTTGGCACGTCGGGGCATCGTGGTTCCTCGCTGACCACCAGCTTCAATGAAAACCACATCCTGTCGATCAGCCAGGCGATTGCCGATTACCGCAAGGGCGCGGGCATCACCGGGCCGCTGTTCATCGGCATTGACACCCATGCGCTGTCGCGGCCGGCGTTGAAATCCGCGCTGGAAGTGTTCGCGGCCAATGGCGTGGAAGTCCGTATCGACGCGCAGGACGGCTATACCCCCACGCCGGTCATCTCGCACGCGATCCTGACCTATAACCGTGACCGCAGCAGTGACCTGGCCGATGGCGTGGTGATCACCCCGTCGCATAACCCGCCGGAAGATGGCGGCTACAAGTACAATCCCCCCCATGGCGGCCCGGCGGATACCGACATCACCAAGGTGGTGGAAACTGCGGCCAACGACTACATGGCCAAAAAGATGGAAGGCGTGAAGCGCGTCAGTTTCGAGGACGCGCTGAAGGCCCCCACCACGAAGCGCCATGACTACATCACGCCGTATGTGGATGACCTGGCCGCCGTGGTGGACATGGACGTGATCCGTGAATCCGGCGTGTCCATCGGCATTGATCCGCTGGGTGGGGCCGCAGTGGATTACTGGCAGCCGATCATCGACAAATACGGCATCAACGCCACGATCGTCAGCAAGGAAGTGGACCCGACCTTCCGCTTCATGACCGCTGACTGGGACGGGCAGATCCGCATGGACTGTTCCTCCCCCTACGCCATGGCGCGCCTTGTCGGGATGAAGGACAAATTCGACATCGCCTTCGCCAATGATACCGATGCCGACCGCCATGGCATCGTATCGGGCAAGTACGGGCTTATGAACCCCAACCACTATCTGGCTGTCGCGATTGAATACCTGTTCAACAATCGCGAAAACTGGAATGCCAGCGCGGGCGTGGGCAAGACGGTGGTCAGCAGCAGCATGATCGACCGCGTGGCCAAGGAAATCGGCCGCAAGCTGGTGGAAGTGCCGGTCGGGTTCAAGTGGTTTGTCGATGGGCTGTACAACGGCACGCTGGGCTTTGGCGGTGAAGAAAGCGCGGGCGCGTCCTTCCTGCGCCGTGCCGGCACGGTGTGGAGCACGGACAAGGACGGCATCATCCTTGGCCTGCTGGCAGCCGAGATCACGGCCCGCACCAAGCGCACCCCCGGTGCGGCGTATGAGGACATGACCAGACGCCTGGGCACGCCGTACTACGCACGGATCGACGCCCCGGCCGACCCGGAACAGAAGGCCATCCTGAAAAACCTTTCGCCCGAGCAGATCGGCATGACCGAACTGGCGGGTGAGCCGATCCTCAGCACGCTGACCAACGCACCGGGCAACGGGGCGGCCATTGGCGGGCTGAAGGTTTCGGCAAAGGACGGCTGGTTTGCCGCCCGTCCGTCGGGTACGGAAAACGTCTATAAGATCTATGCCGAAAGCTTCAAGAGTGCTGCGCACCTCAAGGCCATCCAGACCGAGGCACAGGATGCGATTTCCGCCCTGTTCGCCAAGGCTGCCCAGAAAAACGCTGGCTATTTAATTAAATAA'
p61
sg19
I30
sg20
g21
sg22
S'LIV-1'
p62
sg24
(lp63
F50
aF100
aS''
aS''
asg26
(lp64
(lp65
I3
aI33
aa(lp66
I25
aI52
aI82
aa(lp67
asg31
I0
sg32
g33
sg34
(lp68
(lp69
F2.7656434421339999
aF322.19246074335433
aa(lp70
F29.651574628659141
aF7.2309715193953217e-06
aF79.034427178550033
aa(lp71
asg39
I0
sbag2
(g3
g4
NtRp72
(dp73
g7
I63
sg8
g9
(g11
S'\x00\x00\x00\x00\x00@o@'
tRp74
sg13
S'celB_LIV-2'
p75
sg15
(lp76
F257.15021048577489
aF91.925405378613618
aF142.642655547804
asg17
S'CTAGAAAGGCCTACCCCTTAGGCTTTATGCAACATGTTACAATAATTTTGGAGCCATGAACATATGCCCAGCATAAGCCCATTTGCCGGCAAGCCGGTCGATCCGGACCGTCTTGTCAATATCGACGCCCTGCTTGACGCCTATTATACCCGCAAGCCTGACCCCGCCATTGCAACGCAGCGCGTGGCGTTTGGCACGTCGGGGCATCGTGGTTCCTCGCTGACCACCAGCTTCAATGAAAACCACATCCTGTCGATCAGCCAGGCGATTGCCGATTACCGCAAGGGCGCGGGCATCACCGGGCCGCTGTTCATCGGCATTGACACCCATGCGCTGTCGCGGCCGGCGTTGAAATCCGCGCTGGAAGTGTTCGCGGCCAATGGCGTGGAAGTCCGTATCGACGCGCAGGACGGCTATACCCCCACGCCGGTCATCTCGCACGCGATCCTGACCTATAACCGTGACCGCAGCAGTGACCTGGCCGATGGCGTGGTGATCACCCCGTCGCATAACCCGCCGGAAGATGGCGGCTACAAGTACAATCCCCCCCATGGCGGCCCGGCGGATACCGACATCACCAAGGTGGTGGAAACTGCGGCCAACGACTACATGGCCAAAAAGATGGAAGGCGTGAAGCGCGTCAGTTTCGAGGACGCGCTGAAGGCCCCCACCACGAAGCGCCATGACTACATCACGCCGTATGTGGATGACCTGGCCGCCGTGGTGGACATGGACGTGATCCGTGAATCCGGCGTGTCCATCGGCATTGATCCGCTGGGTGGGGCCGCAGTGGATTACTGGCAGCCGATCATCGACAAATACGGCATCAACGCCACGATCGTCAGCAAGGAAGTGGACCCGACCTTCCGCTTCATGACCGCTGACTGGGACGGGCAGATCCGCATGGACTGTTCCTCCCCCTACGCCATGGCGCGCCTTGTCGGGATGAAGGACAAATTCGACATCGCCTTCGCCAATGATACCGATGCCGACCGCCATGGCATCGTATCGGGCAAGTACGGGCTTATGAACCCCAACCACTATCTGGCTGTCGCGATTGAATACCTGTTCAACAATCGCGAAAACTGGAATGCCAGCGCGGGCGTGGGCAAGACGGTGGTCAGCAGCAGCATGATCGACCGCGTGGCCAAGGAAATCGGCCGCAAGCTGGTGGAAGTGCCGGTCGGGTTCAAGTGGTTTGTCGATGGGCTGTACAACGGCACGCTGGGCTTTGGCGGTGAAGAAAGCGCGGGCGCGTCCTTCCTGCGCCGTGCCGGCACGGTGTGGAGCACGGACAAGGACGGCATCATCCTTGGCCTGCTGGCAGCCGAGATCACGGCCCGCACCAAGCGCACCCCCGGTGCGGCGTATGAGGACATGACCAGACGCCTGGGCACGCCGTACTACGCACGGATCGACGCCCCGGCCGACCCGGAACAGAAGGCCATCCTGAAAAACCTTTCGCCCGAGCAGATCGGCATGACCGAACTGGCGGGTGAGCCGATCCTCAGCACGCTGACCAACGCACCGGGCAACGGGGCGGCCATTGGCGGGCTGAAGGTTTCGGCAAAGGACGGCTGGTTTGCCGCCCGTCCGTCGGGTACGGAAAACGTCTATAAGATCTATGCCGAAAGCTTCAAGAGTGCTGCGCACCTCAAGGCCATCCAGACCGAGGCACAGGATGCGATTTCCGCCCTGTTCGCCAAGGCTGCCCAGAAAAACGCTGGCTATTTAATTAAATAA'
p77
sg19
I30
sg20
g21
sg22
S'LIV-2'
p78
sg24
(lp79
F280
aF220
aS''
aS''
asg26
(lp80
(lp81
I3
aI33
aa(lp82
I25
aI52
aI82
aa(lp83
I17
aasg31
I0
sg32
g33
sg34
(lp84
(lp85
F2.6439362673984581
aF254.50627421837643
aa(lp86
F12.890961944188149
aF1.6255875434138185e-05
aF79.034427178550033
aa(lp87
F142.642655547804
aasg39
I0
sbag2
(g3
g4
NtRp88
(dp89
g7
I62
sg8
g9
(g11
S'\x00\x00\x00\x00\x00 r@'
tRp90
sg13
S'celB_LV-1'
p91
sg15
(lp92
F87.502493372517975
aI0
aF333.40317437907891
asg17
S'CTAGAAAGGCCTACCCCTTAGGCTTTATGCAACATGTACCATTATAACGGAGTAATGAACATATGCCCAGCATAAGCCCATTTGCCGGCAAGCCGGTCGATCCGGACCGTCTTGTCAATATCGACGCCCTGCTTGACGCCTATTATACCCGCAAGCCTGACCCCGCCATTGCAACGCAGCGCGTGGCGTTTGGCACGTCGGGGCATCGTGGTTCCTCGCTGACCACCAGCTTCAATGAAAACCACATCCTGTCGATCAGCCAGGCGATTGCCGATTACCGCAAGGGCGCGGGCATCACCGGGCCGCTGTTCATCGGCATTGACACCCATGCGCTGTCGCGGCCGGCGTTGAAATCCGCGCTGGAAGTGTTCGCGGCCAATGGCGTGGAAGTCCGTATCGACGCGCAGGACGGCTATACCCCCACGCCGGTCATCTCGCACGCGATCCTGACCTATAACCGTGACCGCAGCAGTGACCTGGCCGATGGCGTGGTGATCACCCCGTCGCATAACCCGCCGGAAGATGGCGGCTACAAGTACAATCCCCCCCATGGCGGCCCGGCGGATACCGACATCACCAAGGTGGTGGAAACTGCGGCCAACGACTACATGGCCAAAAAGATGGAAGGCGTGAAGCGCGTCAGTTTCGAGGACGCGCTGAAGGCCCCCACCACGAAGCGCCATGACTACATCACGCCGTATGTGGATGACCTGGCCGCCGTGGTGGACATGGACGTGATCCGTGAATCCGGCGTGTCCATCGGCATTGATCCGCTGGGTGGGGCCGCAGTGGATTACTGGCAGCCGATCATCGACAAATACGGCATCAACGCCACGATCGTCAGCAAGGAAGTGGACCCGACCTTCCGCTTCATGACCGCTGACTGGGACGGGCAGATCCGCATGGACTGTTCCTCCCCCTACGCCATGGCGCGCCTTGTCGGGATGAAGGACAAATTCGACATCGCCTTCGCCAATGATACCGATGCCGACCGCCATGGCATCGTATCGGGCAAGTACGGGCTTATGAACCCCAACCACTATCTGGCTGTCGCGATTGAATACCTGTTCAACAATCGCGAAAACTGGAATGCCAGCGCGGGCGTGGGCAAGACGGTGGTCAGCAGCAGCATGATCGACCGCGTGGCCAAGGAAATCGGCCGCAAGCTGGTGGAAGTGCCGGTCGGGTTCAAGTGGTTTGTCGATGGGCTGTACAACGGCACGCTGGGCTTTGGCGGTGAAGAAAGCGCGGGCGCGTCCTTCCTGCGCCGTGCCGGCACGGTGTGGAGCACGGACAAGGACGGCATCATCCTTGGCCTGCTGGCAGCCGAGATCACGGCCCGCACCAAGCGCACCCCCGGTGCGGCGTATGAGGACATGACCAGACGCCTGGGCACGCCGTACTACGCACGGATCGACGCCCCGGCCGACCCGGAACAGAAGGCCATCCTGAAAAACCTTTCGCCCGAGCAGATCGGCATGACCGAACTGGCGGGTGAGCCGATCCTCAGCACGCTGACCAACGCACCGGGCAACGGGGCGGCCATTGGCGGGCTGAAGGTTTCGGCAAAGGACGGCTGGTTTGCCGCCCGTCCGTCGGGTACGGAAAACGTCTATAAGATCTATGCCGAAAGCTTCAAGAGTGCTGCGCACCTCAAGGCCATCCAGACCGAGGCACAGGATGCGATTTCCGCCCTGTTCGCCAAGGCTGCCCAGAAAAACGCTGGCTATTTAATTAAATAA'
p93
sg19
I30
sg20
g21
sg22
S'LV-1'
p94
sg24
(lp95
F280
aF300
aS''
aS''
asg26
(lp96
(lp97
I3
aI24
aI51
aI81
aa(lp98
a(lp99
I32
aasg31
I0
sg32
g33
sg34
(lp100
(lp101
F1.286849277020139
aF7.1812103083969152
aF6.6085508882095037e-06
aF79.034427178550033
aa(lp102
a(lp103
F333.40317437907891
aasg39
I2
sbag2
(g3
g4
NtRp104
(dp105
g7
I62
sg8
g9
(g11
S'\x00\x00\x00\x00\x00@p@'
tRp106
sg13
S'celB_LV-2'
p107
sg15
(lp108
F92.102646914773942
aI0
aF333.40317437907891
asg17
S'CTAGAAAGGCCTACCCCTTAGGCTTTATGCAACATGTACCATAATACAGGAGTTATGAACATATGCCCAGCATAAGCCCATTTGCCGGCAAGCCGGTCGATCCGGACCGTCTTGTCAATATCGACGCCCTGCTTGACGCCTATTATACCCGCAAGCCTGACCCCGCCATTGCAACGCAGCGCGTGGCGTTTGGCACGTCGGGGCATCGTGGTTCCTCGCTGACCACCAGCTTCAATGAAAACCACATCCTGTCGATCAGCCAGGCGATTGCCGATTACCGCAAGGGCGCGGGCATCACCGGGCCGCTGTTCATCGGCATTGACACCCATGCGCTGTCGCGGCCGGCGTTGAAATCCGCGCTGGAAGTGTTCGCGGCCAATGGCGTGGAAGTCCGTATCGACGCGCAGGACGGCTATACCCCCACGCCGGTCATCTCGCACGCGATCCTGACCTATAACCGTGACCGCAGCAGTGACCTGGCCGATGGCGTGGTGATCACCCCGTCGCATAACCCGCCGGAAGATGGCGGCTACAAGTACAATCCCCCCCATGGCGGCCCGGCGGATACCGACATCACCAAGGTGGTGGAAACTGCGGCCAACGACTACATGGCCAAAAAGATGGAAGGCGTGAAGCGCGTCAGTTTCGAGGACGCGCTGAAGGCCCCCACCACGAAGCGCCATGACTACATCACGCCGTATGTGGATGACCTGGCCGCCGTGGTGGACATGGACGTGATCCGTGAATCCGGCGTGTCCATCGGCATTGATCCGCTGGGTGGGGCCGCAGTGGATTACTGGCAGCCGATCATCGACAAATACGGCATCAACGCCACGATCGTCAGCAAGGAAGTGGACCCGACCTTCCGCTTCATGACCGCTGACTGGGACGGGCAGATCCGCATGGACTGTTCCTCCCCCTACGCCATGGCGCGCCTTGTCGGGATGAAGGACAAATTCGACATCGCCTTCGCCAATGATACCGATGCCGACCGCCATGGCATCGTATCGGGCAAGTACGGGCTTATGAACCCCAACCACTATCTGGCTGTCGCGATTGAATACCTGTTCAACAATCGCGAAAACTGGAATGCCAGCGCGGGCGTGGGCAAGACGGTGGTCAGCAGCAGCATGATCGACCGCGTGGCCAAGGAAATCGGCCGCAAGCTGGTGGAAGTGCCGGTCGGGTTCAAGTGGTTTGTCGATGGGCTGTACAACGGCACGCTGGGCTTTGGCGGTGAAGAAAGCGCGGGCGCGTCCTTCCTGCGCCGTGCCGGCACGGTGTGGAGCACGGACAAGGACGGCATCATCCTTGGCCTGCTGGCAGCCGAGATCACGGCCCGCACCAAGCGCACCCCCGGTGCGGCGTATGAGGACATGACCAGACGCCTGGGCACGCCGTACTACGCACGGATCGACGCCCCGGCCGACCCGGAACAGAAGGCCATCCTGAAAAACCTTTCGCCCGAGCAGATCGGCATGACCGAACTGGCGGGTGAGCCGATCCTCAGCACGCTGACCAACGCACCGGGCAACGGGGCGGCCATTGGCGGGCTGAAGGTTTCGGCAAAGGACGGCTGGTTTGCCGCCCGTCCGTCGGGTACGGAAAACGTCTATAAGATCTATGCCGAAAGCTTCAAGAGTGCTGCGCACCTCAAGGCCATCCAGACCGAGGCACAGGATGCGATTTCCGCCCTGTTCGCCAAGGCTGCCCAGAAAAACGCTGGCTATTTAATTAAATAA'
p109
sg19
I30
sg20
g21
sg22
S'LV-2'
p110
sg24
(lp111
F300
aF220
aS''
aS''
asg26
(lp112
(lp113
I3
aI24
aI51
aI81
aa(lp114
a(lp115
I32
aasg31
I0
sg32
g33
sg34
(lp116
(lp117
F1.286849277020139
aF11.781346085741895
aF2.4373461882950386e-05
aF79.034427178550033
aa(lp118
a(lp119
F333.40317437907891
aasg39
I2
sbag2
(g3
g4
NtRp120
(dp121
g7
I62
sg8
g9
(g11
S'\x00\x00\x00\x00\x00\x00>@'
tRp122
sg13
S'celB_wt'
p123
sg15
(lp124
F107.7774328311277
aF467.68095104029413
aF456.86319639879747
asg17
S'CTAGAAAGGCCTACCCCTTAGGCTTTATGCAACATGTACAATAATAATGGAGTCATGAACATATGCCCAGCATAAGCCCATTTGCCGGCAAGCCGGTCGATCCGGACCGTCTTGTCAATATCGACGCCCTGCTTGACGCCTATTATACCCGCAAGCCTGACCCCGCCATTGCAACGCAGCGCGTGGCGTTTGGCACGTCGGGGCATCGTGGTTCCTCGCTGACCACCAGCTTCAATGAAAACCACATCCTGTCGATCAGCCAGGCGATTGCCGATTACCGCAAGGGCGCGGGCATCACCGGGCCGCTGTTCATCGGCATTGACACCCATGCGCTGTCGCGGCCGGCGTTGAAATCCGCGCTGGAAGTGTTCGCGGCCAATGGCGTGGAAGTCCGTATCGACGCGCAGGACGGCTATACCCCCACGCCGGTCATCTCGCACGCGATCCTGACCTATAACCGTGACCGCAGCAGTGACCTGGCCGATGGCGTGGTGATCACCCCGTCGCATAACCCGCCGGAAGATGGCGGCTACAAGTACAATCCCCCCCATGGCGGCCCGGCGGATACCGACATCACCAAGGTGGTGGAAACTGCGGCCAACGACTACATGGCCAAAAAGATGGAAGGCGTGAAGCGCGTCAGTTTCGAGGACGCGCTGAAGGCCCCCACCACGAAGCGCCATGACTACATCACGCCGTATGTGGATGACCTGGCCGCCGTGGTGGACATGGACGTGATCCGTGAATCCGGCGTGTCCATCGGCATTGATCCGCTGGGTGGGGCCGCAGTGGATTACTGGCAGCCGATCATCGACAAATACGGCATCAACGCCACGATCGTCAGCAAGGAAGTGGACCCGACCTTCCGCTTCATGACCGCTGACTGGGACGGGCAGATCCGCATGGACTGTTCCTCCCCCTACGCCATGGCGCGCCTTGTCGGGATGAAGGACAAATTCGACATCGCCTTCGCCAATGATACCGATGCCGACCGCCATGGCATCGTATCGGGCAAGTACGGGCTTATGAACCCCAACCACTATCTGGCTGTCGCGATTGAATACCTGTTCAACAATCGCGAAAACTGGAATGCCAGCGCGGGCGTGGGCAAGACGGTGGTCAGCAGCAGCATGATCGACCGCGTGGCCAAGGAAATCGGCCGCAAGCTGGTGGAAGTGCCGGTCGGGTTCAAGTGGTTTGTCGATGGGCTGTACAACGGCACGCTGGGCTTTGGCGGTGAAGAAAGCGCGGGCGCGTCCTTCCTGCGCCGTGCCGGCACGGTGTGGAGCACGGACAAGGACGGCATCATCCTTGGCCTGCTGGCAGCCGAGATCACGGCCCGCACCAAGCGCACCCCCGGTGCGGCGTATGAGGACATGACCAGACGCCTGGGCACGCCGTACTACGCACGGATCGACGCCCCGGCCGACCCGGAACAGAAGGCCATCCTGAAAAACCTTTCGCCCGAGCAGATCGGCATGACCGAACTGGCGGGTGAGCCGATCCTCAGCACGCTGACCAACGCACCGGGCAACGGGGCGGCCATTGGCGGGCTGAAGGTTTCGGCAAAGGACGGCTGGTTTGCCGCCCGTCCGTCGGGTACGGAAAACGTCTATAAGATCTATGCCGAAAGCTTCAAGAGTGCTGCGCACCTCAAGGCCATCCAGACCGAGGCACAGGATGCGATTTCCGCCCTGTTCGCCAAGGCTGCCCAGAAAAACGCTGGCTATTTAATTAAATAA'
p125
sg19
I30
sg20
g21
sg22
S'wt'
p126
sg24
(lp127
F40
aF20
aS''
aS''
asg26
(lp128
(lp129
I3
aI24
aI51
aI81
aa(lp130
I16
aa(lp131
I32
aasg31
I0
sg32
g33
sg34
(lp132
(lp133
F4.5372578078439192
aF24.205731588858317
aF1.6255875434138185e-05
aF79.034427178550033
aa(lp134
F467.68095104029413
aa(lp135
F456.86319639879747
aasg39
I2
sbag2
(g3
g4
NtRp136
(dp137
g7
I62
sg8
g9
(g11
S'\x00\x00\x00\x00\x00\x00.@'
tRp138
sg13
S'celB_bla'
p139
sg15
(lp140
F29.294148408877682
aF410.18070671354144
aF66.371389517329845
asg17
S'CTAGAAAGGCCTACCCCTTAGGCTTTATGCATGAGTATTCAACATTTCCGTGTCGCCCTTATTCCCTTTTTTGCGGCATTTTGCCTTCCTGTTTTTGCTCACCCAGAAACGCTGGTGAAAGTAAAAGATGCTGAAGATCAGTTGGGTGCACGAGTGGGTTACATCGAACTGGATCTCAACAGCGGTAAGATCCTTGAGAGTTTTCGCCCCGAAGAACGTTTTCCAATGATGAGCACTTTTAAAGTTCTGCTATGTGGCGCGGTATTATCCCGTGTTGACGCCGGGCAAGAGCAACTCGGTCGCCGCATACACTATTCTCAGAATGACTTGGTTGAGTACTCACCAGTCACAGAAAAGCATCTTACGGATGGCATGACAGTAAGAGAATTATGCAGTGCTGCCATAACCATGAGTGATAACACTGCGGCCAACTTACTTCTGACAACGATCGGAGGACCGAAGGAGCTAACCGCTTTTTTGCACAACATGGGGGATCATGTAACTCGCCTTGATCGTTGGGAACCGGAGCTGAATGAAGCCATACCAAACGACGAGCGTGACACCACGATGCCTGCAGCAATGGCAACAACGTTGCGCAAACTATTAACTGGCGAACTACTTACTCTAGCTTCCCGGCAACAATTAATAGACTGGATGGAGGCGGATAAAGTTGCAGGACCACTTCTGCGCTCGGCCCTTCCGGCTGGCTGGTTTATTGCTGATAAATCTGGAGCCGGTGAGCGTGGGTCTCGCGGTATCATTGCAGCACTGGGGCCAGATGGTAAGCCCTCCCGTATCGTAGTTATCTACACGACGGGGAGTCAGGCAACTATGGATGAACGAAATAGACAGATCGCTGAGATAGGTGCCTCACTGATTAAGCATTGGTAAATGCCCAGCATAAGCCCATTTGCCGGCAAGCCGGTCGATCCGGACCGTCTTGTCAATATCGACGCCCTGCTTGACGCCTATTATACCCGCAAGCCTGACCCCGCCATTGCAACGCAGCGCGTGGCGTTTGGCACGTCGGGGCATCGTGGTTCCTCGCTGACCACCAGCTTCAATGAAAACCACATCCTGTCGATCAGCCAGGCGATTGCCGATTACCGCAAGGGCGCGGGCATCACCGGGCCGCTGTTCATCGGCATTGACACCCATGCGCTGTCGCGGCCGGCGTTGAAATCCGCGCTGGAAGTGTTCGCGGCCAATGGCGTGGAAGTCCGTATCGACGCGCAGGACGGCTATACCCCCACGCCGGTCATCTCGCACGCGATCCTGACCTATAACCGTGACCGCAGCAGTGACCTGGCCGATGGCGTGGTGATCACCCCGTCGCATAACCCGCCGGAAGATGGCGGCTACAAGTACAATCCCCCCCATGGCGGCCCGGCGGATACCGACATCACCAAGGTGGTGGAAACTGCGGCCAACGACTACATGGCCAAAAAGATGGAAGGCGTGAAGCGCGTCAGTTTCGAGGACGCGCTGAAGGCCCCCACCACGAAGCGCCATGACTACATCACGCCGTATGTGGATGACCTGGCCGCCGTGGTGGACATGGACGTGATCCGTGAATCCGGCGTGTCCATCGGCATTGATCCGCTGGGTGGGGCCGCAGTGGATTACTGGCAGCCGATCATCGACAAATACGGCATCAACGCCACGATCGTCAGCAAGGAAGTGGACCCGACCTTCCGCTTCATGACCGCTGACTGGGACGGGCAGATCCGCATGGACTGTTCCTCCCCCTACGCCATGGCGCGCCTTGTCGGGATGAAGGACAAATTCGACATCGCCTTCGCCAATGATACCGATGCCGACCGCCATGGCATCGTATCGGGCAAGTACGGGCTTATGAACCCCAACCACTATCTGGCTGTCGCGATTGAATACCTGTTCAACAATCGCGAAAACTGGAATGCCAGCGCGGGCGTGGGCAAGACGGTGGTCAGCAGCAGCATGATCGACCGCGTGGCCAAGGAAATCGGCCGCAAGCTGGTGGAAGTGCCGGTCGGGTTCAAGTGGTTTGTCGATGGGCTGTACAACGGCACGCTGGGCTTTGGCGGTGAAGAAAGCGCGGGCGCGTCCTTCCTGCGCCGTGCCGGCACGGTGTGGAGCACGGACAAGGACGGCATCATCCTTGGCCTGCTGGCAGCCGAGATCACGGCCCGCACCAAGCGCACCCCCGGTGCGGCGTATGAGGACATGACCAGACGCCTGGGCACGCCGTACTACGCACGGATCGACGCCCCGGCCGACCCGGAACAGAAGGCCATCCTGAAAAACCTTTCGCCCGAGCAGATCGGCATGACCGAACTGGCGGGTGAGCCGATCCTCAGCACGCTGACCAACGCACCGGGCAACGGGGCGGCCATTGGCGGGCTGAAGGTTTCGGCAAAGGACGGCTGGTTTGCCGCCCGTCCGTCGGGTACGGAAAACGTCTATAAGATCTATGCCGAAAGCTTCAAGAGTGCTGCGCACCTCAAGGCCATCCAGACCGAGGCACAGGATGCGATTTCCGCCCTGTTCGCCAAGGCTGCCCAGAAAAACGCTGGCTATTTAATTAAATAA'
p141
sg19
I30
sg20
g21
sg22
S'bla'
p142
sg24
(lp143
F15
aF15
aS''
aS''
asg26
(lp144
(lp145
I84
aa(lp146
I19
aI40
aI64
aa(lp147
I50
aasg31
I0
sg32
g33
sg34
(lp148
(lp149
F29.294148408877682
aa(lp150
F0
aF382.42257285824485
aF27.758133855296585
aa(lp151
F66.371389517329845
aasg39
I2
sbag2
(g3
g4
NtRp152
(dp153
g7
I62
sg8
g9
(g11
S'\x00\x00\x00\x00\x00@`@'
tRp154
sg13
S'gm_LII-10'
p155
sg15
(lp156
F1536.8363086499808
aF535.28527883120717
aF2764.4327907712691
asg17
S'CTAGAAAGGCCTACCCCTTAGGCTTTATGCAACATGTACCACAATAATGGAGTTTTGAACATATGGCACCCGCCCGCTCGCCCAGCCCCAGCACACAGCCCTGGGAGCATGTGAATGCCATCCAGGAGGCCCGGCGTCTCCTGAACCTGAGTAGAGACACTGCTGCTGAGATGAATGAAACAGTAGAAGTCATCTCAGAAATGTTTGACCTCCAGGAGCCGACCTGCCTACAGACCCGCCTGGAGCTGTACAAGCAGGGCCTGCGGGGCAGCCTCACCAAGCTCAAGGGCCCCTTGACCATGATGGCCAGCCACTACAAACAGCACTGCCCTCCAACCCCGGAAACTTCCTGTGCAACCCAGATTATCACCTTTGAAAGTTTCAAAGAGAACCTGAAGGACTTTCTGCTTGTCATCCCCTTTGACTGCTGGGAGCCAGTCCAGGAGTATTTAA'
p157
sg19
I30
sg20
g21
sg22
g23
sg24
(lp158
F100
aF160
aF100
aF160
asg26
(lp159
(lp160
I3
aI24
aI78
aI84
aa(lp161
I16
aa(lp162
I32
aI80
aasg31
I0
sg32
S'gm'
p163
sg34
(lp164
(lp165
F2.6439362673984581
aF27.082172667174348
aF0.069287179265585433
aF1507.0409125361423
aa(lp166
F535.28527883120717
aa(lp167
F2764.358867248236
aF0.073923523033236238
aasg39
I2
sbag2
(g3
g4
NtRp168
(dp169
g7
I60
sg8
g9
(g11
S'\x00\x00\x00\x00\x00\xa0`@'
tRp170
sg13
S'gm_LII-12'
p171
sg15
(lp172
F4466.6771081279694
aF1848.4078023731456
aI0
asg17
S'CTAGAAAGGCCTACCCCTTAGGCTTTATGCAACATGTCCAATAATAATGGAGTATAACATATGGCACCCGCCCGCTCGCCCAGCCCCAGCACACAGCCCTGGGAGCATGTGAATGCCATCCAGGAGGCCCGGCGTCTCCTGAACCTGAGTAGAGACACTGCTGCTGAGATGAATGAAACAGTAGAAGTCATCTCAGAAATGTTTGACCTCCAGGAGCCGACCTGCCTACAGACCCGCCTGGAGCTGTACAAGCAGGGCCTGCGGGGCAGCCTCACCAAGCTCAAGGGCCCCTTGACCATGATGGCCAGCCACTACAAACAGCACTGCCCTCCAACCCCGGAAACTTCCTGTGCAACCCAGATTATCACCTTTGAAAGTTTCAAAGAGAACCTGAAGGACTTTCTGCTTGTCATCCCCTTTGACTGCTGGGAGCCAGTCCAGGAGTATTTAA'
p173
sg19
I30
sg20
g21
sg22
g46
sg24
(lp174
F100
aF162
aF100
aF170
asg26
(lp175
(lp176
I3
aI30
aI78
aa(lp177
I16
aI76
aI82
aa(lp178
asg31
I0
sg32
g163
sg34
(lp179
(lp180
F4.3375875175864937
aF4462.2655970873502
aF0.073923523033236238
aa(lp181
F341.29760265773768
aF0.069287179265585433
aF1507.0409125361423
aa(lp182
asg39
I0
sbag2
(g3
g4
NtRp183
(dp184
g7
I63
sg8
g9
(g11
S'\x00\x00\x00\x00\x00@P@'
tRp185
sg13
S'gm_LIV-1'
p186
sg15
(lp187
F2135.9534116107493
aF1544.2443757868566
aI0
asg17
S'CTAGAAAGGCCTACCCCTTAGGCTTTATGCAACATGTACTATAATAATCGAGGTCATGAACATATGGCACCCGCCCGCTCGCCCAGCCCCAGCACACAGCCCTGGGAGCATGTGAATGCCATCCAGGAGGCCCGGCGTCTCCTGAACCTGAGTAGAGACACTGCTGCTGAGATGAATGAAACAGTAGAAGTCATCTCAGAAATGTTTGACCTCCAGGAGCCGACCTGCCTACAGACCCGCCTGGAGCTGTACAAGCAGGGCCTGCGGGGCAGCCTCACCAAGCTCAAGGGCCCCTTGACCATGATGGCCAGCCACTACAAACAGCACTGCCCTCCAACCCCGGAAACTTCCTGTGCAACCCAGATTATCACCTTTGAAAGTTTCAAAGAGAACCTGAAGGACTTTCTGCTTGTCATCCCCTTTGACTGCTGGGAGCCAGTCCAGGAGTATTTAA'
p188
sg19
I30
sg20
g21
sg22
g62
sg24
(lp189
F40
aF90
aF40
aF90
asg26
(lp190
(lp191
I3
aI33
aI81
aa(lp192
I25
aI79
aI85
aa(lp193
asg31
I0
sg32
g163
sg34
(lp194
(lp195
F2.7656434421339999
aF2133.113844645582
aF0.073923523033236238
aa(lp196
F37.134176071448664
aF0.069287179265585433
aF1507.0409125361423
aa(lp197
asg39
I0
sbag2
(g3
g4
NtRp198
(dp199
g7
I63
sg8
g9
(g11
S'\x00\x00\x00\x00\x00\xb0P@'
tRp200
sg13
S'gm_LIV-2'
p201
sg15
(lp202
F599.74071139997352
aF1514.9677660855862
aF52.997438416145656
asg17
S'CTAGAAAGGCCTACCCCTTAGGCTTTATGCAACATGTTACAATAATTTTGGAGCCATGAACATATGGCACCCGCCCGCTCGCCCAGCCCCAGCACACAGCCCTGGGAGCATGTGAATGCCATCCAGGAGGCCCGGCGTCTCCTGAACCTGAGTAGAGACACTGCTGCTGAGATGAATGAAACAGTAGAAGTCATCTCAGAAATGTTTGACCTCCAGGAGCCGACCTGCCTACAGACCCGCCTGGAGCTGTACAAGCAGGGCCTGCGGGGCAGCCTCACCAAGCTCAAGGGCCCCTTGACCATGATGGCCAGCCACTACAAACAGCACTGCCCTCCAACCCCGGAAACTTCCTGTGCAACCCAGATTATCACCTTTGAAAGTTTCAAAGAGAACCTGAAGGACTTTCTGCTTGTCATCCCCTTTGACTGCTGGGAGCCAGTCCAGGAGTATTTAA'
p203
sg19
I30
sg20
g21
sg22
g78
sg24
(lp204
F40
aF92
aF40
aF95
asg26
(lp205
(lp206
I3
aI33
aI81
aa(lp207
I25
aI79
aI85
aa(lp208
I17
aasg31
I0
sg32
g163
sg34
(lp209
(lp210
F1.1760810991763284
aF598.49070677776388
aF0.073923523033236238
aa(lp211
F7.8575663701782226
aF0.069287179265585433
aF1507.0409125361423
aa(lp212
F52.997438416145656
aasg39
I0
sbag2
(g3
g4
NtRp213
(dp214
g7
I62
sg8
g9
(g11
S'\x00\x00\x00\x00\x00\xf8f@'
tRp215
sg13
S'gm_LV-1'
p216
sg15
(lp217
F1520.8594255225717
aI0
aF1345.5349520685031
asg17
S'CTAGAAAGGCCTACCCCTTAGGCTTTATGCAACATGTACCATTATAACGGAGTAATGAACATATGGCACCCGCCCGCTCGCCCAGCCCCAGCACACAGCCCTGGGAGCATGTGAATGCCATCCAGGAGGCCCGGCGTCTCCTGAACCTGAGTAGAGACACTGCTGCTGAGATGAATGAAACAGTAGAAGTCATCTCAGAAATGTTTGACCTCCAGGAGCCGACCTGCCTACAGACCCGCCTGGAGCTGTACAAGCAGGGCCTGCGGGGCAGCCTCACCAAGCTCAAGGGCCCCTTGACCATGATGGCCAGCCACTACAAACAGCACTGCCCTCCAACCCCGGAAACTTCCTGTGCAACCCAGATTATCACCTTTGAAAGTTTCAAAGAGAACCTGAAGGACTTTCTGCTTGTCATCCCCTTTGACTGCTGGGAGCCAGTCCAGGAGTATTTAA'
p218
sg19
I30
sg20
g21
sg22
g94
sg24
(lp219
F140
aF225
aF140
aF230
asg26
(lp220
(lp221
I3
aI24
aI78
aI84
aa(lp222
a(lp223
I32
aI80
aasg31
I0
sg32
g163
sg34
(lp224
(lp225
F0.85826386297562529
aF12.890961944188149
aF0.069287179265585433
aF1507.0409125361423
aa(lp226
a(lp227
F1345.4610285454698
aF0.073923523033236238
aasg39
I2
sbag2
(g3
g4
NtRp228
(dp229
g7
I62
sg8
g9
(g11
S'\x00\x00\x00\x00\x00\x00d@'
tRp230
sg13
S'gm_LV-2'
p231
sg15
(lp232
F1520.2921352732401
aI0
aF1286.3254899931294
asg17
S'CTAGAAAGGCCTACCCCTTAGGCTTTATGCAACATGTACCATAATACAGGAGTTATGAACATATGGCACCCGCCCGCTCGCCCAGCCCCAGCACACAGCCCTGGGAGCATGTGAATGCCATCCAGGAGGCCCGGCGTCTCCTGAACCTGAGTAGAGACACTGCTGCTGAGATGAATGAAACAGTAGAAGTCATCTCAGAAATGTTTGACCTCCAGGAGCCGACCTGCCTACAGACCCGCCTGGAGCTGTACAAGCAGGGCCTGCGGGGCAGCCTCACCAAGCTCAAGGGCCCCTTGACCATGATGGCCAGCCACTACAAACAGCACTGCCCTCCAACCCCGGAAACTTCCTGTGCAACCCAGATTATCACCTTTGAAAGTTTCAAAGAGAACCTGAAGGACTTTCTGCTTGTCATCCCCTTTGACTGCTGGGAGCCAGTCCAGGAGTATTTAA'
p233
sg19
I30
sg20
g21
sg22
g110
sg24
(lp234
F100
aF220
aF100
aF220
asg26
(lp235
(lp236
I3
aI24
aI78
aI84
aa(lp237
a(lp238
I32
aI80
aasg31
I0
sg32
g163
sg34
(lp239
(lp240
F0.85826386297562529
aF12.323671694856561
aF0.069287179265585433
aF1507.0409125361423
aa(lp241
a(lp242
F1286.2515664700961
aF0.073923523033236238
aasg39
I2
sbag2
(g3
g4
NtRp243
(dp244
g7
I62
sg8
g9
(g11
S'\x00\x00\x00\x00\x00\x80Q@'
tRp245
sg13
S'gm_wt'
p246
sg15
(lp247
F1538.2014220330004
aF341.29760265773768
aF1843.762506500932
asg17
S'CTAGAAAGGCCTACCCCTTAGGCTTTATGCAACATGTACAATAATAATGGAGTCATGAACATATGGCACCCGCCCGCTCGCCCAGCCCCAGCACACAGCCCTGGGAGCATGTGAATGCCATCCAGGAGGCCCGGCGTCTCCTGAACCTGAGTAGAGACACTGCTGCTGAGATGAATGAAACAGTAGAAGTCATCTCAGAAATGTTTGACCTCCAGGAGCCGACCTGCCTACAGACCCGCCTGGAGCTGTACAAGCAGGGCCTGCGGGGCAGCCTCACCAAGCTCAAGGGCCCCTTGACCATGATGGCCAGCCACTACAAACAGCACTGCCCTCCAACCCCGGAAACTTCCTGTGCAACCCAGATTATCACCTTTGAAAGTTTCAAAGAGAACCTGAAGGACTTTCTGCTTGTCATCCCCTTTGACTGCTGGGAGCCAGTCCAGGAGTATTTAA'
p248
sg19
I30
sg20
g21
sg22
g126
sg24
(lp249
F40
aF100
aF40
aF100
asg26
(lp250
(lp251
I3
aI24
aI78
aI84
aa(lp252
I16
aa(lp253
I32
aI80
aasg31
I0
sg32
g163
sg34
(lp254
(lp255
F2.1111784840827776
aF28.980043833509882
aF0.069287179265585433
aF1507.0409125361423
aa(lp256
F341.29760265773768
aa(lp257
F1843.6885829778987
aF0.073923523033236238
aasg39
I2
sbag2
(g3
g4
NtRp258
(dp259
g7
I62
sg8
g9
(g11
S'\x00\x00\x00\x00\x00@:@'
tRp260
sg13
S'gm_bla'
p261
sg15
(lp262
F29.294148408877682
aF410.18070671354144
aF66.371389517329845
asg17
S'CTAGAAAGGCCTACCCCTTAGGCTTTATGCATGAGTATTCAACATTTCCGTGTCGCCCTTATTCCCTTTTTTGCGGCATTTTGCCTTCCTGTTTTTGCTCACCCAGAAACGCTGGTGAAAGTAAAAGATGCTGAAGATCAGTTGGGTGCACGAGTGGGTTACATCGAACTGGATCTCAACAGCGGTAAGATCCTTGAGAGTTTTCGCCCCGAAGAACGTTTTCCAATGATGAGCACTTTTAAAGTTCTGCTATGTGGCGCGGTATTATCCCGTGTTGACGCCGGGCAAGAGCAACTCGGTCGCCGCATACACTATTCTCAGAATGACTTGGTTGAGTACTCACCAGTCACAGAAAAGCATCTTACGGATGGCATGACAGTAAGAGAATTATGCAGTGCTGCCATAACCATGAGTGATAACACTGCGGCCAACTTACTTCTGACAACGATCGGAGGACCGAAGGAGCTAACCGCTTTTTTGCACAACATGGGGGATCATGTAACTCGCCTTGATCGTTGGGAACCGGAGCTGAATGAAGCCATACCAAACGACGAGCGTGACACCACGATGCCTGCAGCAATGGCAACAACGTTGCGCAAACTATTAACTGGCGAACTACTTACTCTAGCTTCCCGGCAACAATTAATAGACTGGATGGAGGCGGATAAAGTTGCAGGACCACTTCTGCGCTCGGCCCTTCCGGCTGGCTGGTTTATTGCTGATAAATCTGGAGCCGGTGAGCGTGGGTCTCGCGGTATCATTGCAGCACTGGGGCCAGATGGTAAGCCCTCCCGTATCGTAGTTATCTACACGACGGGGAGTCAGGCAACTATGGATGAACGAAATAGACAGATCGCTGAGATAGGTGCCTCACTGATTAAGCATTGGTAAATGGCACCCGCCCGCTCGCCCAGCCCCAGCACACAGCCCTGGGAGCATGTGAATGCCATCCAGGAGGCCCGGCGTCTCCTGAACCTGAGTAGAGACACTGCTGCTGAGATGAATGAAACAGTAGAAGTCATCTCAGAAATGTTTGACCTCCAGGAGCCGACCTGCCTACAGACCCGCCTGGAGCTGTACAAGCAGGGCCTGCGGGGCAGCCTCACCAAGCTCAAGGGCCCCTTGACCATGATGGCCAGCCACTACAAACAGCACTGCCCTCCAACCCCGGAAACTTCCTGTGCAACCCAGATTATCACCTTTGAAAGTTTCAAAGAGAACCTGAAGGACTTTCTGCTTGTCATCCCCTTTGACTGCTGGGAGCCAGTCCAGGAGTATTTAA'
p263
sg19
I30
sg20
g21
sg22
g142
sg24
(lp264
F15
aF40
aF10
aF40
asg26
(lp265
(lp266
I84
aa(lp267
I19
aI40
aI64
aa(lp268
I50
aasg31
I0
sg32
g163
sg34
(lp269
(lp270
F29.294148408877682
aa(lp271
F0
aF382.42257285824485
aF27.758133855296585
aa(lp272
F66.371389517329845
aasg39
I2
sbag2
(g3
g4
NtRp273
(dp274
g7
I62
sg8
g9
(g11
S'\x00\x00\x00\x00\x00\x00\xf8\xff'
tRp275
sg13
S'gm-omp_LII-10'
p276
sg15
(lp277
F423.64988244004257
aF733.5027446199158
aF4144.7780376180544
asg17
S'CTAGAAAGGCCTACCCCTTAGGCTTTATGCAACATGTACCACAATAATGGAGTTTTGAACATATGAAAAAAACTGCTATCGCTATCGCTGTTGCTCTGGCTGGTTTCGCTACTGTTGCTCAGGCGGCGGCCATGGCTGCACCCGCCCGCTCGCCCAGCCCCAGCACACAGCCCTGGGAGCATGTGAATGCCATCCAGGAGGCCCGGCGTCTCCTGAACCTGAGTAGAGACACTGCTGCTGAGATGAATGAAACAGTAGAAGTCATCTCAGAAATGTTTGACCTCCAGGAGCCGACCTGCCTACAGACCCGCCTGGAGCTGTACAAGCAGGGCCTGCGGGGCAGCCTCACCAAGCTCAAGGGCCCCTTGACCATGATGGCCAGCCACTACAAACAGCACTGCCCTCCAACCCCGGAAACTTCCTGTGCAACCCAGATTATCACCTTTGAAAGTTTCAAAGAGAACCTGAAGGACTTTCTGCTTGTCATCCCCTTTGACTGCTGGGAGCCAGTCCAGGAGTATTTAA'
p278
sg19
I30
sg20
g21
sg22
g23
sg24
(lp279
S''
aS''
aS''
aS''
asg26
(lp280
(lp281
I3
aI24
aI60
aI84
aa(lp282
I16
aa(lp283
I32
aasg31
I0
sg32
S'gm-omp'
p284
sg34
(lp285
(lp286
F2.8929531106076642
aF44.430456043422353
aF38.467415697010168
aF337.85905758900242
aa(lp287
F733.5027446199158
aa(lp288
F4144.7780376180544
aasg39
I2
sbag2
(g3
g4
NtRp289
(dp290
g7
I60
sg8
g9
(g11
S'\x00\x00\x00\x00\x00\x00\xf8\xff'
tRp291
sg13
S'gm-omp_LII-12'
p292
sg15
(lp293
F12014.529656239047
aF1702.7416075205783
aI0
asg17
S'CTAGAAAGGCCTACCCCTTAGGCTTTATGCAACATGTCCAATAATAATGGAGTATAACATATGAAAAAAACTGCTATCGCTATCGCTGTTGCTCTGGCTGGTTTCGCTACTGTTGCTCAGGCGGCGGCCATGGCTGCACCCGCCCGCTCGCCCAGCCCCAGCACACAGCCCTGGGAGCATGTGAATGCCATCCAGGAGGCCCGGCGTCTCCTGAACCTGAGTAGAGACACTGCTGCTGAGATGAATGAAACAGTAGAAGTCATCTCAGAAATGTTTGACCTCCAGGAGCCGACCTGCCTACAGACCCGCCTGGAGCTGTACAAGCAGGGCCTGCGGGGCAGCCTCACCAAGCTCAAGGGCCCCTTGACCATGATGGCCAGCCACTACAAACAGCACTGCCCTCCAACCCCGGAAACTTCCTGTGCAACCCAGATTATCACCTTTGAAAGTTTCAAAGAGAACCTGAAGGACTTTCTGCTTGTCATCCCCTTTGACTGCTGGGAGCCAGTCCAGGAGTATTTAA'
p294
sg19
I30
sg20
g21
sg22
g46
sg24
(lp295
S''
aS''
aS''
aS''
asg26
(lp296
(lp297
I3
aI30
aa(lp298
I16
aI58
aI82
aa(lp299
asg31
I0
sg32
g284
sg34
(lp300
(lp301
F4.3375875175864937
aF12010.192068721461
aa(lp302
F1316.7078473940001
aF48.174702537575797
aF337.85905758900242
aa(lp303
asg39
I0
sbag2
(g3
g4
NtRp304
(dp305
g7
I63
sg8
g9
(g11
S'\x00\x00\x00\x00\x00\x00\xf8\xff'
tRp306
sg13
S'gm-omp_LIV-1'
p307
sg15
(lp308
F5744.043570817108
aF581.67501739848603
aI0
asg17
S'CTAGAAAGGCCTACCCCTTAGGCTTTATGCAACATGTACTATAATAATCGAGGTCATGAACATATGAAAAAAACTGCTATCGCTATCGCTGTTGCTCTGGCTGGTTTCGCTACTGTTGCTCAGGCGGCGGCCATGGCTGCACCCGCCCGCTCGCCCAGCCCCAGCACACAGCCCTGGGAGCATGTGAATGCCATCCAGGAGGCCCGGCGTCTCCTGAACCTGAGTAGAGACACTGCTGCTGAGATGAATGAAACAGTAGAAGTCATCTCAGAAATGTTTGACCTCCAGGAGCCGACCTGCCTACAGACCCGCCTGGAGCTGTACAAGCAGGGCCTGCGGGGCAGCCTCACCAAGCTCAAGGGCCCCTTGACCATGATGGCCAGCCACTACAAACAGCACTGCCCTCCAACCCCGGAAACTTCCTGTGCAACCCAGATTATCACCTTTGAAAGTTTCAAAGAGAACCTGAAGGACTTTCTGCTTGTCATCCCCTTTGACTGCTGGGAGCCAGTCCAGGAGTATTTAA'
p309
sg19
I30
sg20
g21
sg22
g62
sg24
(lp310
S''
aS''
aS''
aS''
asg26
(lp311
(lp312
I3
aI33
aa(lp313
I25
aI61
aI85
aa(lp314
asg31
I0
sg32
g284
sg34
(lp315
(lp316
F2.7656434421339999
aF5741.2779273749738
aa(lp317
F205.34854411247341
aF38.467415697010168
aF337.85905758900242
aa(lp318
asg39
I0
sbag2
(g3
g4
NtRp319
(dp320
g7
I63
sg8
g9
(g11
S'\x00\x00\x00\x00\x00\x00\xf8\xff'
tRp321
sg13
S'gm-omp_LIV-2'
p322
sg15
(lp323
F4338.2167487386132
aF465.60133644588666
aF502.93885552358699
asg17
S'CTAGAAAGGCCTACCCCTTAGGCTTTATGCAACATGTTACAATAATTTTGGAGCCATGAACATATGAAAAAAACTGCTATCGCTATCGCTGTTGCTCTGGCTGGTTTCGCTACTGTTGCTCAGGCGGCGGCCATGGCTGCACCCGCCCGCTCGCCCAGCCCCAGCACACAGCCCTGGGAGCATGTGAATGCCATCCAGGAGGCCCGGCGTCTCCTGAACCTGAGTAGAGACACTGCTGCTGAGATGAATGAAACAGTAGAAGTCATCTCAGAAATGTTTGACCTCCAGGAGCCGACCTGCCTACAGACCCGCCTGGAGCTGTACAAGCAGGGCCTGCGGGGCAGCCTCACCAAGCTCAAGGGCCCCTTGACCATGATGGCCAGCCACTACAAACAGCACTGCCCTCCAACCCCGGAAACTTCCTGTGCAACCCAGATTATCACCTTTGAAAGTTTCAAAGAGAACCTGAAGGACTTTCTGCTTGTCATCCCCTTTGACTGCTGGGAGCCAGTCCAGGAGTATTTAA'
p324
sg19
I30
sg20
g21
sg22
g78
sg24
(lp325
S''
aS''
aS''
aS''
asg26
(lp326
(lp327
I3
aI33
aa(lp328
I25
aI61
aI85
aa(lp329
I17
aasg31
I0
sg32
g284
sg34
(lp330
(lp331
F2.6439362673984581
aF4335.572812471215
aa(lp332
F89.274863159874045
aF38.467415697010168
aF337.85905758900242
aa(lp333
F502.93885552358699
aasg39
I0
sbag2
(g3
g4
NtRp334
(dp335
g7
I62
sg8
g9
(g11
S'\x00\x00\x00\x00\x00\x00\xf8\xff'
tRp336
sg13
S'gm-omp_LV-1'
p337
sg15
(lp338
F416.97699789633242
aI0
aF2017.3347924025127
asg17
S'CTAGAAAGGCCTACCCCTTAGGCTTTATGCAACATGTACCATTATAACGGAGTAATGAACATATGAAAAAAACTGCTATCGCTATCGCTGTTGCTCTGGCTGGTTTCGCTACTGTTGCTCAGGCGGCGGCCATGGCTGCACCCGCCCGCTCGCCCAGCCCCAGCACACAGCCCTGGGAGCATGTGAATGCCATCCAGGAGGCCCGGCGTCTCCTGAACCTGAGTAGAGACACTGCTGCTGAGATGAATGAAACAGTAGAAGTCATCTCAGAAATGTTTGACCTCCAGGAGCCGACCTGCCTACAGACCCGCCTGGAGCTGTACAAGCAGGGCCTGCGGGGCAGCCTCACCAAGCTCAAGGGCCCCTTGACCATGATGGCCAGCCACTACAAACAGCACTGCCCTCCAACCCCGGAAACTTCCTGTGCAACCCAGATTATCACCTTTGAAAGTTTCAAAGAGAACCTGAAGGACTTTCTGCTTGTCATCCCCTTTGACTGCTGGGAGCCAGTCCAGGAGTATTTAA'
p339
sg19
I30
sg20
g21
sg22
g94
sg24
(lp340
S''
aS''
aS''
aS''
asg26
(lp341
(lp342
I3
aI24
aI60
aI84
aa(lp343
a(lp344
I32
aasg31
I0
sg32
g284
sg34
(lp345
(lp346
F0.93909870019695663
aF39.711425910122891
aF38.467415697010168
aF337.85905758900242
aa(lp347
a(lp348
F2017.3347924025127
aasg39
I2
sbag2
(g3
g4
NtRp349
(dp350
g7
I62
sg8
g9
(g11
S'\x00\x00\x00\x00\x00\x00\xf8\xff'
tRp351
sg13
S'gm-omp_LV-2'
p352
sg15
(lp353
F415.22942430148345
aI0
aF1928.5583021512732
asg17
S'CTAGAAAGGCCTACCCCTTAGGCTTTATGCAACATGTACCATAATACAGGAGTTATGAACATATGAAAAAAACTGCTATCGCTATCGCTGTTGCTCTGGCTGGTTTCGCTACTGTTGCTCAGGCGGCGGCCATGGCTGCACCCGCCCGCTCGCCCAGCCCCAGCACACAGCCCTGGGAGCATGTGAATGCCATCCAGGAGGCCCGGCGTCTCCTGAACCTGAGTAGAGACACTGCTGCTGAGATGAATGAAACAGTAGAAGTCATCTCAGAAATGTTTGACCTCCAGGAGCCGACCTGCCTACAGACCCGCCTGGAGCTGTACAAGCAGGGCCTGCGGGGCAGCCTCACCAAGCTCAAGGGCCCCTTGACCATGATGGCCAGCCACTACAAACAGCACTGCCCTCCAACCCCGGAAACTTCCTGTGCAACCCAGATTATCACCTTTGAAAGTTTCAAAGAGAACCTGAAGGACTTTCTGCTTGTCATCCCCTTTGACTGCTGGGAGCCAGTCCAGGAGTATTTAA'
p354
sg19
I30
sg20
g21
sg22
g110
sg24
(lp355
S''
aS''
aS''
aS''
asg26
(lp356
(lp357
I3
aI24
aI60
aI84
aa(lp358
a(lp359
I32
aasg31
I0
sg32
g284
sg34
(lp360
(lp361
F0.93909870019695663
aF37.963852315273897
aF38.467415697010168
aF337.85905758900242
aa(lp362
a(lp363
F1928.5583021512732
aasg39
I2
sbag2
(g3
g4
NtRp364
(dp365
g7
I62
sg8
g9
(g11
S'\x00\x00\x00\x00\x00\x00\xf8\xff'
tRp366
sg13
S'gm-omp_wt'
p367
sg15
(lp368
F548.49772029000258
aF1648.9802532283925
aF8515.782826836441
asg17
S'CTAGAAAGGCCTACCCCTTAGGCTTTATGCAACATGTACAATAATAATGGAGTCATGAACATATGAAAAAAACTGCTATCGCTATCGCTGTTGCTCTGGCTGGTTTCGCTACTGTTGCTCAGGCGGCGGCCATGGCTGCACCCGCCCGCTCGCCCAGCCCCAGCACACAGCCCTGGGAGCATGTGAATGCCATCCAGGAGGCCCGGCGTCTCCTGAACCTGAGTAGAGACACTGCTGCTGAGATGAATGAAACAGTAGAAGTCATCTCAGAAATGTTTGACCTCCAGGAGCCGACCTGCCTACAGACCCGCCTGGAGCTGTACAAGCAGGGCCTGCGGGGCAGCCTCACCAAGCTCAAGGGCCCCTTGACCATGATGGCCAGCCACTACAAACAGCACTGCCCTCCAACCCCGGAAACTTCCTGTGCAACCCAGATTATCACCTTTGAAAGTTTCAAAGAGAACCTGAAGGACTTTCTGCTTGTCATCCCCTTTGACTGCTGGGAGCCAGTCCAGGAGTATTTAA'
p369
sg19
I30
sg20
g21
sg22
g126
sg24
(lp370
S''
aS''
aS''
aS''
asg26
(lp371
(lp372
I3
aI24
aI60
aI84
aa(lp373
I16
aa(lp374
I32
aasg31
I0
sg32
g284
sg34
(lp375
(lp376
F4.5372578078439192
aF167.63398919614605
aF38.467415697010168
aF337.85905758900242
aa(lp377
F1648.9802532283925
aa(lp378
F8515.782826836441
aasg39
I2
sbag2
(g3
g4
NtRp379
(dp380
g7
I62
sg8
g9
(g11
S'\x00\x00\x00\x00\x00\x00\xf8\xff'
tRp381
sg13
S'gm-omp_bla'
p382
sg15
(lp383
F29.294148408877682
aF410.18070671354144
aF66.371389517329845
asg17
S'CTAGAAAGGCCTACCCCTTAGGCTTTATGCATGAGTATTCAACATTTCCGTGTCGCCCTTATTCCCTTTTTTGCGGCATTTTGCCTTCCTGTTTTTGCTCACCCAGAAACGCTGGTGAAAGTAAAAGATGCTGAAGATCAGTTGGGTGCACGAGTGGGTTACATCGAACTGGATCTCAACAGCGGTAAGATCCTTGAGAGTTTTCGCCCCGAAGAACGTTTTCCAATGATGAGCACTTTTAAAGTTCTGCTATGTGGCGCGGTATTATCCCGTGTTGACGCCGGGCAAGAGCAACTCGGTCGCCGCATACACTATTCTCAGAATGACTTGGTTGAGTACTCACCAGTCACAGAAAAGCATCTTACGGATGGCATGACAGTAAGAGAATTATGCAGTGCTGCCATAACCATGAGTGATAACACTGCGGCCAACTTACTTCTGACAACGATCGGAGGACCGAAGGAGCTAACCGCTTTTTTGCACAACATGGGGGATCATGTAACTCGCCTTGATCGTTGGGAACCGGAGCTGAATGAAGCCATACCAAACGACGAGCGTGACACCACGATGCCTGCAGCAATGGCAACAACGTTGCGCAAACTATTAACTGGCGAACTACTTACTCTAGCTTCCCGGCAACAATTAATAGACTGGATGGAGGCGGATAAAGTTGCAGGACCACTTCTGCGCTCGGCCCTTCCGGCTGGCTGGTTTATTGCTGATAAATCTGGAGCCGGTGAGCGTGGGTCTCGCGGTATCATTGCAGCACTGGGGCCAGATGGTAAGCCCTCCCGTATCGTAGTTATCTACACGACGGGGAGTCAGGCAACTATGGATGAACGAAATAGACAGATCGCTGAGATAGGTGCCTCACTGATTAAGCATTGGTAAATGAAAAAAACTGCTATCGCTATCGCTGTTGCTCTGGCTGGTTTCGCTACTGTTGCTCAGGCGGCGGCCATGGCTGCACCCGCCCGCTCGCCCAGCCCCAGCACACAGCCCTGGGAGCATGTGAATGCCATCCAGGAGGCCCGGCGTCTCCTGAACCTGAGTAGAGACACTGCTGCTGAGATGAATGAAACAGTAGAAGTCATCTCAGAAATGTTTGACCTCCAGGAGCCGACCTGCCTACAGACCCGCCTGGAGCTGTACAAGCAGGGCCTGCGGGGCAGCCTCACCAAGCTCAAGGGCCCCTTGACCATGATGGCCAGCCACTACAAACAGCACTGCCCTCCAACCCCGGAAACTTCCTGTGCAACCCAGATTATCACCTTTGAAAGTTTCAAAGAGAACCTGAAGGACTTTCTGCTTGTCATCCCCTTTGACTGCTGGGAGCCAGTCCAGGAGTATTTAA'
p384
sg19
I30
sg20
g21
sg22
g142
sg24
(lp385
S''
aS''
aS''
aS''
asg26
(lp386
(lp387
I84
aa(lp388
I19
aI40
aI64
aa(lp389
I50
aasg31
I0
sg32
g284
sg34
(lp390
(lp391
F29.294148408877682
aa(lp392
F0
aF382.42257285824485
aF27.758133855296585
aa(lp393
F66.371389517329845
aasg39
I2
sbag2
(g3
g4
NtRp394
(dp395
g7
I62
sg8
g9
(g11
S'\x00\x00\x00\x00\x00\x00D@'
tRp396
sg13
S'infa_LII-10'
p397
sg15
(lp398
F11.825480562294736
aF180.26545039024472
aF214.13441089705842
asg17
S'CTAGAAAGGCCTACCCCTTAGGCTTTATGCAACATGTACCACAATAATGGAGTTTTGAACATATGTGCGATCTGCCGCAGACCCATAGCCTGGGTAGCCGTCGCACCCTGATGCTGCTGGCACAGATGCGTCGCATCAGCCTGTTTAGCTGCCTGAAAGACCGTCATGACTTTGGCTTTCCGCAGGAGGAATTTGGCAACCAGTTTCAGAAAGCGGAAACCATCCCGGTGCTGCATGAGATGATCCAGCAGATCTTTAATCTGTTTAGCACCAAAGACAGCAGCGCGGCCTGGGATGAGACCCTGCTGGACAAATTTTATACCGAACTGTATCAGCAGCTGAATGACCTGGAAGCCTGCGTGATTCAGGGCGTGGGCGTGACCGAGACCCCGCTGATGAAAGAGGACAGCATTCTGGCGGTGCGTAAATATTTTCAGCGTATCACCCTGTATCTGAAAGAGAAAAAATATAGCCCGTGCGCCTGGGAGGTTGTGCGTGCAGAAATCATGCGTAGCTTTAGCCTGAGCACCAACCTGCAGGAAAGCCTGCGTAGCAAAGAATATTTAA'
p399
sg19
I30
sg20
g21
sg22
g23
sg24
(lp400
F10
aF30
aF60
aF60
asg26
(lp401
(lp402
I3
aI24
aa(lp403
I16
aI34
aa(lp404
I32
aI80
aasg31
I0
sg32
S'infa'
p405
sg34
(lp406
(lp407
F1.7633727545570563
aF10.062107807737679
aa(lp408
F126.80567821011844
aF53.459772180126272
aa(lp409
F155.13194049876725
aF59.002470398291173
aasg39
I2
sbag2
(g3
g4
NtRp410
(dp411
g7
I60
sg8
g9
(g11
S'\x00\x00\x00\x00\x00`B@'
tRp412
sg13
S'infa_LII-12'
p413
sg15
(lp414
F435.87518812910929
aF190.12777115069292
aF153.79724126733154
asg17
S'CTAGAAAGGCCTACCCCTTAGGCTTTATGCAACATGTCCAATAATAATGGAGTATAACATATGTGCGATCTGCCGCAGACCCATAGCCTGGGTAGCCGTCGCACCCTGATGCTGCTGGCACAGATGCGTCGCATCAGCCTGTTTAGCTGCCTGAAAGACCGTCATGACTTTGGCTTTCCGCAGGAGGAATTTGGCAACCAGTTTCAGAAAGCGGAAACCATCCCGGTGCTGCATGAGATGATCCAGCAGATCTTTAATCTGTTTAGCACCAAAGACAGCAGCGCGGCCTGGGATGAGACCCTGCTGGACAAATTTTATACCGAACTGTATCAGCAGCTGAATGACCTGGAAGCCTGCGTGATTCAGGGCGTGGGCGTGACCGAGACCCCGCTGATGAAAGAGGACAGCATTCTGGCGGTGCGTAAATATTTTCAGCGTATCACCCTGTATCTGAAAGAGAAAAAATATAGCCCGTGCGCCTGGGAGGTTGTGCGTGCAGAAATCATGCGTAGCTTTAGCCTGAGCACCAACCTGCAGGAAAGCCTGCGTAGCAAAGAATATTTAA'
p415
sg19
I30
sg20
g21
sg22
g46
sg24
(lp416
F7
aF30
aF60
aF50
asg26
(lp417
(lp418
I3
aI30
aI78
aa(lp419
I16
aa(lp420
I32
aasg31
I0
sg32
g405
sg34
(lp421
(lp422
F1.4080500595809502
aF375.46466767123718
aF59.002470398291173
aa(lp423
F190.12777115069292
aa(lp424
F153.79724126733154
aasg39
I0
sbag2
(g3
g4
NtRp425
(dp426
g7
I63
sg8
g9
(g11
S'\x00\x00\x00\x00\x00\x806@'
tRp427
sg13
S'infa_LIV-1'
p428
sg15
(lp429
F241.25292113373035
aF23.676730467030492
aF56.731827782436447
asg17
S'CTAGAAAGGCCTACCCCTTAGGCTTTATGCAACATGTACTATAATAATCGAGGTCATGAACATATGTGCGATCTGCCGCAGACCCATAGCCTGGGTAGCCGTCGCACCCTGATGCTGCTGGCACAGATGCGTCGCATCAGCCTGTTTAGCTGCCTGAAAGACCGTCATGACTTTGGCTTTCCGCAGGAGGAATTTGGCAACCAGTTTCAGAAAGCGGAAACCATCCCGGTGCTGCATGAGATGATCCAGCAGATCTTTAATCTGTTTAGCACCAAAGACAGCAGCGCGGCCTGGGATGAGACCCTGCTGGACAAATTTTATACCGAACTGTATCAGCAGCTGAATGACCTGGAAGCCTGCGTGATTCAGGGCGTGGGCGTGACCGAGACCCCGCTGATGAAAGAGGACAGCATTCTGGCGGTGCGTAAATATTTTCAGCGTATCACCCTGTATCTGAAAGAGAAAAAATATAGCCCGTGCGCCTGGGAGGTTGTGCGTGCAGAAATCATGCGTAGCTTTAGCCTGAGCACCAACCTGCAGGAAAGCCTGCGTAGCAAAGAATATTTAA'
p430
sg19
I30
sg20
g21
sg22
g62
sg24
(lp431
F5
aF25
aF40
aF20
asg26
(lp432
(lp433
I3
aI33
aI81
aa(lp434
I25
aa(lp435
I35
aasg31
I0
sg32
g405
sg34
(lp436
(lp437
F2.7656434421339999
aF179.48480729330518
aF59.002470398291173
aa(lp438
F23.676730467030492
aa(lp439
F56.731827782436447
aasg39
I0
sbag2
(g3
g4
NtRp440
(dp441
g7
I63
sg8
g9
(g11
S'\x00\x00\x00\x00\x00\xa0T@'
tRp442
sg13
S'infa_LIV-2'
p443
sg15
(lp444
F203.42504877801781
aF12.890961944188149
aF115.2295027012679
asg17
S'CTAGAAAGGCCTACCCCTTAGGCTTTATGCAACATGTTACAATAATTTTGGAGCCATGAACATATGTGCGATCTGCCGCAGACCCATAGCCTGGGTAGCCGTCGCACCCTGATGCTGCTGGCACAGATGCGTCGCATCAGCCTGTTTAGCTGCCTGAAAGACCGTCATGACTTTGGCTTTCCGCAGGAGGAATTTGGCAACCAGTTTCAGAAAGCGGAAACCATCCCGGTGCTGCATGAGATGATCCAGCAGATCTTTAATCTGTTTAGCACCAAAGACAGCAGCGCGGCCTGGGATGAGACCCTGCTGGACAAATTTTATACCGAACTGTATCAGCAGCTGAATGACCTGGAAGCCTGCGTGATTCAGGGCGTGGGCGTGACCGAGACCCCGCTGATGAAAGAGGACAGCATTCTGGCGGTGCGTAAATATTTTCAGCGTATCACCCTGTATCTGAAAGAGAAAAAATATAGCCCGTGCGCCTGGGAGGTTGTGCGTGCAGAAATCATGCGTAGCTTTAGCCTGAGCACCAACCTGCAGGAAAGCCTGCGTAGCAAAGAATATTTAA'
p445
sg19
I30
sg20
g21
sg22
g78
sg24
(lp446
F40
aF90
aF120
aF80
asg26
(lp447
(lp448
I3
aI33
aI81
aa(lp449
I25
aa(lp450
I17
aI35
aasg31
I0
sg32
g405
sg34
(lp451
(lp452
F2.6439362673984581
aF141.77864211232819
aF59.002470398291173
aa(lp453
F12.890961944188149
aa(lp454
F66.371389517329789
aF48.858113183938109
aasg39
I0
sbag2
(g3
g4
NtRp455
(dp456
g7
I62
sg8
g9
(g11
S'\x00\x00\x00\x00\x00\x007@'
tRp457
sg13
S'infa_LV-1'
p458
sg15
(lp459
F7.1354918834538408
aF19.862438574048525
aF116.64017653455471
asg17
S'CTAGAAAGGCCTACCCCTTAGGCTTTATGCAACATGTACCATTATAACGGAGTAATGAACATATGTGCGATCTGCCGCAGACCCATAGCCTGGGTAGCCGTCGCACCCTGATGCTGCTGGCACAGATGCGTCGCATCAGCCTGTTTAGCTGCCTGAAAGACCGTCATGACTTTGGCTTTCCGCAGGAGGAATTTGGCAACCAGTTTCAGAAAGCGGAAACCATCCCGGTGCTGCATGAGATGATCCAGCAGATCTTTAATCTGTTTAGCACCAAAGACAGCAGCGCGGCCTGGGATGAGACCCTGCTGGACAAATTTTATACCGAACTGTATCAGCAGCTGAATGACCTGGAAGCCTGCGTGATTCAGGGCGTGGGCGTGACCGAGACCCCGCTGATGAAAGAGGACAGCATTCTGGCGGTGCGTAAATATTTTCAGCGTATCACCCTGTATCTGAAAGAGAAAAAATATAGCCCGTGCGCCTGGGAGGTTGTGCGTGCAGAAATCATGCGTAGCTTTAGCCTGAGCACCAACCTGCAGGAAAGCCTGCGTAGCAAAGAATATTTAA'
p460
sg19
I30
sg20
g21
sg22
g94
sg24
(lp461
F7
aF25
aF20
aF40
asg26
(lp462
(lp463
I3
aI24
aa(lp464
I34
aa(lp465
I32
aI80
aasg31
I0
sg32
g405
sg34
(lp466
(lp467
F0.5724189084486816
aF6.5630729750051593
aa(lp468
F19.862438574048525
aa(lp469
F57.637706136263546
aF59.002470398291173
aasg39
I2
sbag2
(g3
g4
NtRp470
(dp471
g7
I62
sg8
g9
(g11
S'\x00\x00\x00\x00\x00\x007@'
tRp472
sg13
S'infa_LV-2'
p473
sg15
(lp474
F6.8466719086147458
aF18.988355803515997
aF114.10372434219656
asg17
S'CTAGAAAGGCCTACCCCTTAGGCTTTATGCAACATGTACCATAATACAGGAGTTATGAACATATGTGCGATCTGCCGCAGACCCATAGCCTGGGTAGCCGTCGCACCCTGATGCTGCTGGCACAGATGCGTCGCATCAGCCTGTTTAGCTGCCTGAAAGACCGTCATGACTTTGGCTTTCCGCAGGAGGAATTTGGCAACCAGTTTCAGAAAGCGGAAACCATCCCGGTGCTGCATGAGATGATCCAGCAGATCTTTAATCTGTTTAGCACCAAAGACAGCAGCGCGGCCTGGGATGAGACCCTGCTGGACAAATTTTATACCGAACTGTATCAGCAGCTGAATGACCTGGAAGCCTGCGTGATTCAGGGCGTGGGCGTGACCGAGACCCCGCTGATGAAAGAGGACAGCATTCTGGCGGTGCGTAAATATTTTCAGCGTATCACCCTGTATCTGAAAGAGAAAAAATATAGCCCGTGCGCCTGGGAGGTTGTGCGTGCAGAAATCATGCGTAGCTTTAGCCTGAGCACCAACCTGCAGGAAAGCCTGCGTAGCAAAGAATATTTAA'
p475
sg19
I30
sg20
g21
sg22
g110
sg24
(lp476
F7
aF25
aF20
aF40
asg26
(lp477
(lp478
I3
aI24
aa(lp479
I34
aa(lp480
I32
aI80
aasg31
I0
sg32
g405
sg34
(lp481
(lp482
F0.5724189084486816
aF6.2742530001660644
aa(lp483
F18.988355803515997
aa(lp484
F55.101253943905377
aF59.002470398291173
aasg39
I2
sbag2
(g3
g4
NtRp485
(dp486
g7
I62
sg8
g9
(g11
S'\x00\x00\x00\x00\x00\x00%@'
tRp487
sg13
S'infa_wt'
p488
sg15
(lp489
F9.2716087325753378
aF309.35345619069471
aF325.22432186772789
asg17
S'CTAGAAAGGCCTACCCCTTAGGCTTTATGCAACATGTACAATAATAATGGAGTCATGAACATATGTGCGATCTGCCGCAGACCCATAGCCTGGGTAGCCGTCGCACCCTGATGCTGCTGGCACAGATGCGTCGCATCAGCCTGTTTAGCTGCCTGAAAGACCGTCATGACTTTGGCTTTCCGCAGGAGGAATTTGGCAACCAGTTTCAGAAAGCGGAAACCATCCCGGTGCTGCATGAGATGATCCAGCAGATCTTTAATCTGTTTAGCACCAAAGACAGCAGCGCGGCCTGGGATGAGACCCTGCTGGACAAATTTTATACCGAACTGTATCAGCAGCTGAATGACCTGGAAGCCTGCGTGATTCAGGGCGTGGGCGTGACCGAGACCCCGCTGATGAAAGAGGACAGCATTCTGGCGGTGCGTAAATATTTTCAGCGTATCACCCTGTATCTGAAAGAGAAAAAATATAGCCCGTGCGCCTGGGAGGTTGTGCGTGCAGAAATCATGCGTAGCTTTAGCCTGAGCACCAACCTGCAGGAAAGCCTGCGTAGCAAAGAATATTTAA'
p490
sg19
I30
sg20
g21
sg22
g126
sg24
(lp491
F5
aF17
aF10
aF10
asg26
(lp492
(lp493
I3
aI24
aa(lp494
I16
aI34
aa(lp495
I32
aI80
aasg31
I0
sg32
g405
sg34
(lp496
(lp497
F3.7897680651237291
aF5.4818406674516096
aa(lp498
F217.61116583340629
aF91.742290357288439
aa(lp499
F266.22185146943673
aF59.002470398291173
aasg39
I2
sbag2
(g3
g4
NtRp500
(dp501
g7
I62
sg8
g9
(g11
S'\x00\x00\x00\x00\x00@5@'
tRp502
sg13
S'infa_bla'
p503
sg15
(lp504
F29.294148408877682
aF410.18070671354144
aF66.371389517329845
asg17
S'CTAGAAAGGCCTACCCCTTAGGCTTTATGCATGAGTATTCAACATTTCCGTGTCGCCCTTATTCCCTTTTTTGCGGCATTTTGCCTTCCTGTTTTTGCTCACCCAGAAACGCTGGTGAAAGTAAAAGATGCTGAAGATCAGTTGGGTGCACGAGTGGGTTACATCGAACTGGATCTCAACAGCGGTAAGATCCTTGAGAGTTTTCGCCCCGAAGAACGTTTTCCAATGATGAGCACTTTTAAAGTTCTGCTATGTGGCGCGGTATTATCCCGTGTTGACGCCGGGCAAGAGCAACTCGGTCGCCGCATACACTATTCTCAGAATGACTTGGTTGAGTACTCACCAGTCACAGAAAAGCATCTTACGGATGGCATGACAGTAAGAGAATTATGCAGTGCTGCCATAACCATGAGTGATAACACTGCGGCCAACTTACTTCTGACAACGATCGGAGGACCGAAGGAGCTAACCGCTTTTTTGCACAACATGGGGGATCATGTAACTCGCCTTGATCGTTGGGAACCGGAGCTGAATGAAGCCATACCAAACGACGAGCGTGACACCACGATGCCTGCAGCAATGGCAACAACGTTGCGCAAACTATTAACTGGCGAACTACTTACTCTAGCTTCCCGGCAACAATTAATAGACTGGATGGAGGCGGATAAAGTTGCAGGACCACTTCTGCGCTCGGCCCTTCCGGCTGGCTGGTTTATTGCTGATAAATCTGGAGCCGGTGAGCGTGGGTCTCGCGGTATCATTGCAGCACTGGGGCCAGATGGTAAGCCCTCCCGTATCGTAGTTATCTACACGACGGGGAGTCAGGCAACTATGGATGAACGAAATAGACAGATCGCTGAGATAGGTGCCTCACTGATTAAGCATTGGTAAATGTGCGATCTGCCGCAGACCCATAGCCTGGGTAGCCGTCGCACCCTGATGCTGCTGGCACAGATGCGTCGCATCAGCCTGTTTAGCTGCCTGAAAGACCGTCATGACTTTGGCTTTCCGCAGGAGGAATTTGGCAACCAGTTTCAGAAAGCGGAAACCATCCCGGTGCTGCATGAGATGATCCAGCAGATCTTTAATCTGTTTAGCACCAAAGACAGCAGCGCGGCCTGGGATGAGACCCTGCTGGACAAATTTTATACCGAACTGTATCAGCAGCTGAATGACCTGGAAGCCTGCGTGATTCAGGGCGTGGGCGTGACCGAGACCCCGCTGATGAAAGAGGACAGCATTCTGGCGGTGCGTAAATATTTTCAGCGTATCACCCTGTATCTGAAAGAGAAAAAATATAGCCCGTGCGCCTGGGAGGTTGTGCGTGCAGAAATCATGCGTAGCTTTAGCCTGAGCACCAACCTGCAGGAAAGCCTGCGTAGCAAAGAATATTTAA'
p505
sg19
I30
sg20
g21
sg22
g142
sg24
(lp506
F15
aF40
aF15
aF15
asg26
(lp507
(lp508
I84
aa(lp509
I19
aI40
aI64
aa(lp510
I50
aasg31
I0
sg32
g405
sg34
(lp511
(lp512
F29.294148408877682
aa(lp513
F0
aF382.42257285824485
aF27.758133855296585
aa(lp514
F66.371389517329845
aasg39
I2
sbag2
(g3
g4
NtRp515
(dp516
g7
I62
sg8
g9
(g11
S'\x00\x00\x00\x00\x00\x00\xf8\xff'
tRp517
sg13
S'infa-pelB_LII-10'
p518
sg15
(lp519
F20.160531674045341
aF535.28527883120717
aF820.71309854906974
asg17
S'CTAGAAAGGCCTACCCCTTAGGCTTTATGCAACATGTACCACAATAATGGAGTTTTGAACATATGAAATCCCTATTGCCTACGGCAGCCGCTGGATTGTTATTACTCGCGGCCCAGCCGGCCATGGCTTGCGATCTGCCGCAGACCCATAGCCTGGGTAGCCGTCGCACCCTGATGCTGCTGGCACAGATGCGTCGCATCAGCCTGTTTAGCTGCCTGAAAGACCGTCATGACTTTGGCTTTCCGCAGGAGGAATTTGGCAACCAGTTTCAGAAAGCGGAAACCATCCCGGTGCTGCATGAGATGATCCAGCAGATCTTTAATCTGTTTAGCACCAAAGACAGCAGCGCGGCCTGGGATGAGACCCTGCTGGACAAATTTTATACCGAACTGTATCAGCAGCTGAATGACCTGGAAGCCTGCGTGATTCAGGGCGTGGGCGTGACCGAGACCCCGCTGATGAAAGAGGACAGCATTCTGGCGGTGCGTAAATATTTTCAGCGTATCACCCTGTATCTGAAAGAGAAAAAATATAGCCCGTGCGCCTGGGAGGTTGTGCGTGCAGAAATCATGCGTAGCTTTAGCCTGAGCACCAACCTGCAGGAAAGCCTGCGTAGCAAAGAATATTTAA'
p520
sg19
I30
sg20
g21
sg22
g23
sg24
(lp521
S''
aS''
aS''
aS''
asg26
(lp522
(lp523
I3
aI24
aa(lp524
I16
aa(lp525
I32
aI44
aI65
aasg31
I0
sg32
S'infa-pelB'
p526
sg34
(lp527
(lp528
F2.8929531106076642
aF17.267578563437677
aa(lp529
F535.28527883120717
aa(lp530
F820.11329922905009
aF0.51139115813903346
aF0.088408161880548064
aasg39
I2
sbag2
(g3
g4
NtRp531
(dp532
g7
I60
sg8
g9
(g11
S'\x00\x00\x00\x00\x00\x00\xf8\xff'
tRp533
sg13
S'infa-pelB_LII-12'
p534
sg15
(lp535
F1819.2751012954427
aF1576.4138750909913
aI0
asg17
S'CTAGAAAGGCCTACCCCTTAGGCTTTATGCAACATGTCCAATAATAATGGAGTATAACATATGAAATCCCTATTGCCTACGGCAGCCGCTGGATTGTTATTACTCGCGGCCCAGCCGGCCATGGCTTGCGATCTGCCGCAGACCCATAGCCTGGGTAGCCGTCGCACCCTGATGCTGCTGGCACAGATGCGTCGCATCAGCCTGTTTAGCTGCCTGAAAGACCGTCATGACTTTGGCTTTCCGCAGGAGGAATTTGGCAACCAGTTTCAGAAAGCGGAAACCATCCCGGTGCTGCATGAGATGATCCAGCAGATCTTTAATCTGTTTAGCACCAAAGACAGCAGCGCGGCCTGGGATGAGACCCTGCTGGACAAATTTTATACCGAACTGTATCAGCAGCTGAATGACCTGGAAGCCTGCGTGATTCAGGGCGTGGGCGTGACCGAGACCCCGCTGATGAAAGAGGACAGCATTCTGGCGGTGCGTAAATATTTTCAGCGTATCACCCTGTATCTGAAAGAGAAAAAATATAGCCCGTGCGCCTGGGAGGTTGTGCGTGCAGAAATCATGCGTAGCTTTAGCCTGAGCACCAACCTGCAGGAAAGCCTGCGTAGCAAAGAATATTTAA'
p536
sg19
I30
sg20
g21
sg22
g46
sg24
(lp537
S''
aS''
aS''
aS''
asg26
(lp538
(lp539
I3
aI30
aI42
aI63
aa(lp540
I16
aa(lp541
asg31
I0
sg32
g526
sg34
(lp542
(lp543
F4.3375875175864937
aF1814.0585165367104
aF0.79058907926511957
aF0.088408161880548064
aa(lp544
F1576.4138750909913
aa(lp545
asg39
I0
sbag2
(g3
g4
NtRp546
(dp547
g7
I63
sg8
g9
(g11
S'\x00\x00\x00\x00\x00\x00\xf8\xff'
tRp548
sg13
S'infa-pelB_LIV-1'
p549
sg15
(lp550
F870.43859554251048
aF48.645764110119828
aI0
asg17
S'CTAGAAAGGCCTACCCCTTAGGCTTTATGCAACATGTACTATAATAATCGAGGTCATGAACATATGAAATCCCTATTGCCTACGGCAGCCGCTGGATTGTTATTACTCGCGGCCCAGCCGGCCATGGCTTGCGATCTGCCGCAGACCCATAGCCTGGGTAGCCGTCGCACCCTGATGCTGCTGGCACAGATGCGTCGCATCAGCCTGTTTAGCTGCCTGAAAGACCGTCATGACTTTGGCTTTCCGCAGGAGGAATTTGGCAACCAGTTTCAGAAAGCGGAAACCATCCCGGTGCTGCATGAGATGATCCAGCAGATCTTTAATCTGTTTAGCACCAAAGACAGCAGCGCGGCCTGGGATGAGACCCTGCTGGACAAATTTTATACCGAACTGTATCAGCAGCTGAATGACCTGGAAGCCTGCGTGATTCAGGGCGTGGGCGTGACCGAGACCCCGCTGATGAAAGAGGACAGCATTCTGGCGGTGCGTAAATATTTTCAGCGTATCACCCTGTATCTGAAAGAGAAAAAATATAGCCCGTGCGCCTGGGAGGTTGTGCGTGCAGAAATCATGCGTAGCTTTAGCCTGAGCACCAACCTGCAGGAAAGCCTGCGTAGCAAAGAATATTTAA'
p551
sg19
I30
sg20
g21
sg22
g62
sg24
(lp552
S''
aS''
aS''
aS''
asg26
(lp553
(lp554
I3
aI33
aI45
aI66
aa(lp555
I25
aa(lp556
asg31
I0
sg32
g526
sg34
(lp557
(lp558
F2.7656434421339999
aF867.18131236909778
aF0.40323156939815002
aF0.088408161880548064
aa(lp559
F48.645764110119828
aa(lp560
asg39
I0
sbag2
(g3
g4
NtRp561
(dp562
g7
I63
sg8
g9
(g11
S'\x00\x00\x00\x00\x00\x00\xf8\xff'
tRp563
sg13
S'infa-pelB_LIV-2'
p564
sg15
(lp565
F689.24226758999691
aF24.205731588858317
aF502.93885552358699
asg17
S'CTAGAAAGGCCTACCCCTTAGGCTTTATGCAACATGTTACAATAATTTTGGAGCCATGAACATATGAAATCCCTATTGCCTACGGCAGCCGCTGGATTGTTATTACTCGCGGCCCAGCCGGCCATGGCTTGCGATCTGCCGCAGACCCATAGCCTGGGTAGCCGTCGCACCCTGATGCTGCTGGCACAGATGCGTCGCATCAGCCTGTTTAGCTGCCTGAAAGACCGTCATGACTTTGGCTTTCCGCAGGAGGAATTTGGCAACCAGTTTCAGAAAGCGGAAACCATCCCGGTGCTGCATGAGATGATCCAGCAGATCTTTAATCTGTTTAGCACCAAAGACAGCAGCGCGGCCTGGGATGAGACCCTGCTGGACAAATTTTATACCGAACTGTATCAGCAGCTGAATGACCTGGAAGCCTGCGTGATTCAGGGCGTGGGCGTGACCGAGACCCCGCTGATGAAAGAGGACAGCATTCTGGCGGTGCGTAAATATTTTCAGCGTATCACCCTGTATCTGAAAGAGAAAAAATATAGCCCGTGCGCCTGGGAGGTTGTGCGTGCAGAAATCATGCGTAGCTTTAGCCTGAGCACCAACCTGCAGGAAAGCCTGCGTAGCAAAGAATATTTAA'
p566
sg19
I30
sg20
g21
sg22
g78
sg24
(lp567
S''
aS''
aS''
aS''
asg26
(lp568
(lp569
I3
aI33
aI45
aI66
aa(lp570
I25
aa(lp571
I17
aasg31
I0
sg32
g526
sg34
(lp572
(lp573
F2.6439362673984581
aF685.00387741432735
aF1.5060457463905588
aF0.088408161880548064
aa(lp574
F24.205731588858317
aa(lp575
F502.93885552358699
aasg39
I0
sbag2
(g3
g4
NtRp576
(dp577
g7
I62
sg8
g9
(g11
S'\x00\x00\x00\x00\x00\x00\xf8\xff'
tRp578
sg13
S'infa-pelB_LV-1'
p579
sg15
(lp580
F11.70634137711785
aI0
aF304.91436917837746
asg17
S'CTAGAAAGGCCTACCCCTTAGGCTTTATGCAACATGTACCATTATAACGGAGTAATGAACATATGAAATCCCTATTGCCTACGGCAGCCGCTGGATTGTTATTACTCGCGGCCCAGCCGGCCATGGCTTGCGATCTGCCGCAGACCCATAGCCTGGGTAGCCGTCGCACCCTGATGCTGCTGGCACAGATGCGTCGCATCAGCCTGTTTAGCTGCCTGAAAGACCGTCATGACTTTGGCTTTCCGCAGGAGGAATTTGGCAACCAGTTTCAGAAAGCGGAAACCATCCCGGTGCTGCATGAGATGATCCAGCAGATCTTTAATCTGTTTAGCACCAAAGACAGCAGCGCGGCCTGGGATGAGACCCTGCTGGACAAATTTTATACCGAACTGTATCAGCAGCTGAATGACCTGGAAGCCTGCGTGATTCAGGGCGTGGGCGTGACCGAGACCCCGCTGATGAAAGAGGACAGCATTCTGGCGGTGCGTAAATATTTTCAGCGTATCACCCTGTATCTGAAAGAGAAAAAATATAGCCCGTGCGCCTGGGAGGTTGTGCGTGCAGAAATCATGCGTAGCTTTAGCCTGAGCACCAACCTGCAGGAAAGCCTGCGTAGCAAAGAATATTTAA'
p581
sg19
I30
sg20
g21
sg22
g94
sg24
(lp582
S''
aS''
aS''
aS''
asg26
(lp583
(lp584
I3
aI24
aa(lp585
a(lp586
I32
aI44
aI65
aasg31
I0
sg32
g526
sg34
(lp587
(lp588
F0.93909870019695663
aF10.767242676920894
aa(lp589
a(lp590
F304.70481570351529
aF0.12114531298165321
aF0.088408161880548064
aasg39
I2
sbag2
(g3
g4
NtRp591
(dp592
g7
I62
sg8
g9
(g11
S'\x00\x00\x00\x00\x00\x00\xf8\xff'
tRp593
sg13
S'infa-pelB_LV-2'
p594
sg15
(lp595
F11.23250926053495
aI0
aF292.43482834581476
asg17
S'CTAGAAAGGCCTACCCCTTAGGCTTTATGCAACATGTACCATAATACAGGAGTTATGAACATATGAAATCCCTATTGCCTACGGCAGCCGCTGGATTGTTATTACTCGCGGCCCAGCCGGCCATGGCTTGCGATCTGCCGCAGACCCATAGCCTGGGTAGCCGTCGCACCCTGATGCTGCTGGCACAGATGCGTCGCATCAGCCTGTTTAGCTGCCTGAAAGACCGTCATGACTTTGGCTTTCCGCAGGAGGAATTTGGCAACCAGTTTCAGAAAGCGGAAACCATCCCGGTGCTGCATGAGATGATCCAGCAGATCTTTAATCTGTTTAGCACCAAAGACAGCAGCGCGGCCTGGGATGAGACCCTGCTGGACAAATTTTATACCGAACTGTATCAGCAGCTGAATGACCTGGAAGCCTGCGTGATTCAGGGCGTGGGCGTGACCGAGACCCCGCTGATGAAAGAGGACAGCATTCTGGCGGTGCGTAAATATTTTCAGCGTATCACCCTGTATCTGAAAGAGAAAAAATATAGCCCGTGCGCCTGGGAGGTTGTGCGTGCAGAAATCATGCGTAGCTTTAGCCTGAGCACCAACCTGCAGGAAAGCCTGCGTAGCAAAGAATATTTAA'
p596
sg19
I30
sg20
g21
sg22
g110
sg24
(lp597
S''
aS''
aS''
aS''
asg26
(lp598
(lp599
I3
aI24
aa(lp600
a(lp601
I32
aI44
aI65
aasg31
I0
sg32
g526
sg34
(lp602
(lp603
F0.93909870019695663
aF10.293410560337994
aa(lp604
a(lp605
F291.29572555016824
aF1.0506946337659808
aF0.088408161880548064
aasg39
I2
sbag2
(g3
g4
NtRp606
(dp607
g7
I62
sg8
g9
(g11
S'\x00\x00\x00\x00\x00\x00\xf8\xff'
tRp608
sg13
S'infa-pelB_wt'
p609
sg15
(lp610
F27.677772109757424
aF585.70065835246271
aF1287.0407352037757
asg17
S'CTAGAAAGGCCTACCCCTTAGGCTTTATGCAACATGTACAATAATAATGGAGTCATGAACATATGAAATCCCTATTGCCTACGGCAGCCGCTGGATTGTTATTACTCGCGGCCCAGCCGGCCATGGCTTGCGATCTGCCGCAGACCCATAGCCTGGGTAGCCGTCGCACCCTGATGCTGCTGGCACAGATGCGTCGCATCAGCCTGTTTAGCTGCCTGAAAGACCGTCATGACTTTGGCTTTCCGCAGGAGGAATTTGGCAACCAGTTTCAGAAAGCGGAAACCATCCCGGTGCTGCATGAGATGATCCAGCAGATCTTTAATCTGTTTAGCACCAAAGACAGCAGCGCGGCCTGGGATGAGACCCTGCTGGACAAATTTTATACCGAACTGTATCAGCAGCTGAATGACCTGGAAGCCTGCGTGATTCAGGGCGTGGGCGTGACCGAGACCCCGCTGATGAAAGAGGACAGCATTCTGGCGGTGCGTAAATATTTTCAGCGTATCACCCTGTATCTGAAAGAGAAAAAATATAGCCCGTGCGCCTGGGAGGTTGTGCGTGCAGAAATCATGCGTAGCTTTAGCCTGAGCACCAACCTGCAGGAAAGCCTGCGTAGCAAAGAATATTTAA'
p611
sg19
I30
sg20
g21
sg22
g126
sg24
(lp612
S''
aS''
aS''
aS''
asg26
(lp613
(lp614
I3
aI24
aa(lp615
I16
aa(lp616
I32
aI44
aI65
aasg31
I0
sg32
g526
sg34
(lp617
(lp618
F4.5372578078439192
aF23.140514301913505
aa(lp619
F585.70065835246271
aa(lp620
F1286.2515664700961
aF0.70076057179899165
aF0.088408161880548064
aasg39
I2
sbag2
(g3
g4
NtRp621
(dp622
g7
I62
sg8
g9
(g11
S'\x00\x00\x00\x00\x00\x00\xf8\xff'
tRp623
sg13
S'infa-pelB_bla'
p624
sg15
(lp625
F29.294148408877682
aF410.18070671354144
aF66.371389517329845
asg17
S'CTAGAAAGGCCTACCCCTTAGGCTTTATGCATGAGTATTCAACATTTCCGTGTCGCCCTTATTCCCTTTTTTGCGGCATTTTGCCTTCCTGTTTTTGCTCACCCAGAAACGCTGGTGAAAGTAAAAGATGCTGAAGATCAGTTGGGTGCACGAGTGGGTTACATCGAACTGGATCTCAACAGCGGTAAGATCCTTGAGAGTTTTCGCCCCGAAGAACGTTTTCCAATGATGAGCACTTTTAAAGTTCTGCTATGTGGCGCGGTATTATCCCGTGTTGACGCCGGGCAAGAGCAACTCGGTCGCCGCATACACTATTCTCAGAATGACTTGGTTGAGTACTCACCAGTCACAGAAAAGCATCTTACGGATGGCATGACAGTAAGAGAATTATGCAGTGCTGCCATAACCATGAGTGATAACACTGCGGCCAACTTACTTCTGACAACGATCGGAGGACCGAAGGAGCTAACCGCTTTTTTGCACAACATGGGGGATCATGTAACTCGCCTTGATCGTTGGGAACCGGAGCTGAATGAAGCCATACCAAACGACGAGCGTGACACCACGATGCCTGCAGCAATGGCAACAACGTTGCGCAAACTATTAACTGGCGAACTACTTACTCTAGCTTCCCGGCAACAATTAATAGACTGGATGGAGGCGGATAAAGTTGCAGGACCACTTCTGCGCTCGGCCCTTCCGGCTGGCTGGTTTATTGCTGATAAATCTGGAGCCGGTGAGCGTGGGTCTCGCGGTATCATTGCAGCACTGGGGCCAGATGGTAAGCCCTCCCGTATCGTAGTTATCTACACGACGGGGAGTCAGGCAACTATGGATGAACGAAATAGACAGATCGCTGAGATAGGTGCCTCACTGATTAAGCATTGGTAAATGAAATCCCTATTGCCTACGGCAGCCGCTGGATTGTTATTACTCGCGGCCCAGCCGGCCATGGCTTGCGATCTGCCGCAGACCCATAGCCTGGGTAGCCGTCGCACCCTGATGCTGCTGGCACAGATGCGTCGCATCAGCCTGTTTAGCTGCCTGAAAGACCGTCATGACTTTGGCTTTCCGCAGGAGGAATTTGGCAACCAGTTTCAGAAAGCGGAAACCATCCCGGTGCTGCATGAGATGATCCAGCAGATCTTTAATCTGTTTAGCACCAAAGACAGCAGCGCGGCCTGGGATGAGACCCTGCTGGACAAATTTTATACCGAACTGTATCAGCAGCTGAATGACCTGGAAGCCTGCGTGATTCAGGGCGTGGGCGTGACCGAGACCCCGCTGATGAAAGAGGACAGCATTCTGGCGGTGCGTAAATATTTTCAGCGTATCACCCTGTATCTGAAAGAGAAAAAATATAGCCCGTGCGCCTGGGAGGTTGTGCGTGCAGAAATCATGCGTAGCTTTAGCCTGAGCACCAACCTGCAGGAAAGCCTGCGTAGCAAAGAATATTTAA'
p626
sg19
I30
sg20
g21
sg22
g142
sg24
(lp627
S''
aS''
aS''
aS''
asg26
(lp628
(lp629
I84
aa(lp630
I19
aI40
aI64
aa(lp631
I50
aasg31
I0
sg32
g526
sg34
(lp632
(lp633
F29.294148408877682
aa(lp634
F0
aF382.42257285824485
aF27.758133855296585
aa(lp635
F66.371389517329845
aasg39
I2
sbag2
(g3
g4
NtRp636
(dp637
g7
I62
sg8
g9
(g11
S'\x00\x00\x00\x00\x00\xa0^@'
tRp638
sg13
S'synluc_LII-10'
p639
sg15
(lp640
F380.76752069833134
aF960.88846620029256
aF8515.782826836441
asg17
S'CTAGAAAGGCCTACCCCTTAGGCTTTATGCAACATGTACCACAATAATGGAGTTTTGAACATATGGAAGATGCGAAAAATATTAAAAAAGGTCCGGCGCCGTTTTATCCGCTGGAAGATGGCACCGCCGGCGAACAGCTGCACAAAGCCATGAAACGTTATGCGCTGGTGCCGGGCACCATCGCGTTTACCGATGCCCACATTGAAGTGAATATCACCTATGCCGAATATTTTGAAATGAGCGTGCGTCTGGCGGAAGCGATGAAACGTTATGGTCTGAACACCAACCATCGTATCGTTGTGTGCAGCGAAAACAGCCTGCAGTTCTTTATGCCGGTTCTGGGCGCGCTGTTTATCGGTGTTGCCGTGGCGCCGGCCAATGATATTTATAATGAACGCGAACTGCTGAACAGCATGAATATCAGCCAGCCGACCGTTGTGTTTGTGAGCAAAAAAGGTCTGCAGAAAATCCTGAACGTGCAGAAAAAACTGCCGATTATTCAGAAAATTATCATCATGGATAGCAAAACCGATTATCAGGGTTTCCAGAGCATGTATACCTTTGTGACCAGCCATCTGCCGCCGGGTTTTAATGAATATGATTTCGTTCCGGAAAGCTTTGATCGCGATAAAACCATTGCGCTGATTATGAACAGCAGCGGTAGCACCGGCCTGCCGAAAGGCGTTGCGCTGCCGCATCGTACCGCCTGTGTGCGCTTTAGCCATGCCCGTGATCCGATTTTTGGCAATCAGATCATTCCGGATACCGCGATCCTGAGCGTGGTGCCGTTCCACCATGGCTTCGGCATGTTTACCACCCTGGGCTATCTGATTTGCGGCTTTCGTGTGGTGCTGATGTATCGTTTTGAAGAAGAACTGTTTCTGCGTAGCCTGCAGGATTATAAAATTCAGAGCGCGCTGCTGGTGCCGACCCTGTTTAGCTTCTTTGCGAAAAGCACCCTGATTGATAAATATGATCTGAGCAACCTGCATGAAATCGCGAGCGGCGGCGCGCCGCTGAGCAAAGAAGTTGGCGAAGCGGTGGCGAAACGTTTTCATCTGCCGGGCATTCGTCAGGGTTATGGTCTGACCGAAACCACCAGCGCGATTCTGATTACCCCGGAAGGCGATGATAAACCGGGCGCCGTGGGTAAAGTTGTTCCGTTCTTCGAAGCCAAAGTGGTGGATCTGGATACCGGCAAA'
p641
sg19
I30
sg20
g21
sg22
g23
sg24
(lp642
F100
aF130
aF60
aF200
asg26
(lp643
(lp644
I3
aI24
aI39
aI87
aa(lp645
I16
aa(lp646
I32
aasg31
I0
sg32
S'synluc'
p647
sg34
(lp648
(lp649
F2.6439362673984581
aF79.756934196589455
aF298.19312002614606
aF0.17353020819734427
aa(lp650
F960.88846620029256
aa(lp651
F8515.782826836441
aasg39
I2
sbag2
(g3
g4
NtRp652
(dp653
g7
I60
sg8
g9
(g11
S'\x00\x00\x00\x00\x00\xf0d@'
tRp654
sg13
S'synluc_LII-12'
p655
sg15
(lp656
F27004.331389945986
aF2431.252931804358
aI0
asg17
S'CTAGAAAGGCCTACCCCTTAGGCTTTATGCAACATGTCCAATAATAATGGAGTATAACATATGGAAGATGCGAAAAATATTAAAAAAGGTCCGGCGCCGTTTTATCCGCTGGAAGATGGCACCGCCGGCGAACAGCTGCACAAAGCCATGAAACGTTATGCGCTGGTGCCGGGCACCATCGCGTTTACCGATGCCCACATTGAAGTGAATATCACCTATGCCGAATATTTTGAAATGAGCGTGCGTCTGGCGGAAGCGATGAAACGTTATGGTCTGAACACCAACCATCGTATCGTTGTGTGCAGCGAAAACAGCCTGCAGTTCTTTATGCCGGTTCTGGGCGCGCTGTTTATCGGTGTTGCCGTGGCGCCGGCCAATGATATTTATAATGAACGCGAACTGCTGAACAGCATGAATATCAGCCAGCCGACCGTTGTGTTTGTGAGCAAAAAAGGTCTGCAGAAAATCCTGAACGTGCAGAAAAAACTGCCGATTATTCAGAAAATTATCATCATGGATAGCAAAACCGATTATCAGGGTTTCCAGAGCATGTATACCTTTGTGACCAGCCATCTGCCGCCGGGTTTTAATGAATATGATTTCGTTCCGGAAAGCTTTGATCGCGATAAAACCATTGCGCTGATTATGAACAGCAGCGGTAGCACCGGCCTGCCGAAAGGCGTTGCGCTGCCGCATCGTACCGCCTGTGTGCGCTTTAGCCATGCCCGTGATCCGATTTTTGGCAATCAGATCATTCCGGATACCGCGATCCTGAGCGTGGTGCCGTTCCACCATGGCTTCGGCATGTTTACCACCCTGGGCTATCTGATTTGCGGCTTTCGTGTGGTGCTGATGTATCGTTTTGAAGAAGAACTGTTTCTGCGTAGCCTGCAGGATTATAAAATTCAGAGCGCGCTGCTGGTGCCGACCCTGTTTAGCTTCTTTGCGAAAAGCACCCTGATTGATAAATATGATCTGAGCAACCTGCATGAAATCGCGAGCGGCGGCGCGCCGCTGAGCAAAGAAGTTGGCGAAGCGGTGGCGAAACGTTTTCATCTGCCGGGCATTCGTCAGGGTTATGGTCTGACCGAAACCACCAGCGCGATTCTGATTACCCCGGAAGGCGATGATAAACCGGGCGCCGTGGGTAAAGTTGTTCCGTTCTTCGAAGCCAAAGTGGTGGATCTGGATACCGGCAAA'
p657
sg19
I30
sg20
g21
sg22
g46
sg24
(lp658
F100
aF210
aF80
aF280
asg26
(lp659
(lp660
I3
aI30
aa(lp661
I16
aI37
aI85
aa(lp662
asg31
I0
sg32
g647
sg34
(lp663
(lp664
F4.3375875175864937
aF26999.993802428398
aa(lp665
F918.60281987454448
aF1512.4765817216162
aF0.17353020819734427
aa(lp666
asg39
I0
sbag2
(g3
g4
NtRp667
(dp668
g7
I63
sg8
g9
(g11
S'\x00\x00\x00\x00\x00\x10h@'
tRp669
sg13
S'synluc_LIV-1'
p670
sg15
(lp671
F19354.911941758612
aF1459.2160672876412
aI0
asg17
S'CTAGAAAGGCCTACCCCTTAGGCTTTATGCAACATGTACTATAATAATCGAGGTCATGAACATATGGAAGATGCGAAAAATATTAAAAAAGGTCCGGCGCCGTTTTATCCGCTGGAAGATGGCACCGCCGGCGAACAGCTGCACAAAGCCATGAAACGTTATGCGCTGGTGCCGGGCACCATCGCGTTTACCGATGCCCACATTGAAGTGAATATCACCTATGCCGAATATTTTGAAATGAGCGTGCGTCTGGCGGAAGCGATGAAACGTTATGGTCTGAACACCAACCATCGTATCGTTGTGTGCAGCGAAAACAGCCTGCAGTTCTTTATGCCGGTTCTGGGCGCGCTGTTTATCGGTGTTGCCGTGGCGCCGGCCAATGATATTTATAATGAACGCGAACTGCTGAACAGCATGAATATCAGCCAGCCGACCGTTGTGTTTGTGAGCAAAAAAGGTCTGCAGAAAATCCTGAACGTGCAGAAAAAACTGCCGATTATTCAGAAAATTATCATCATGGATAGCAAAACCGATTATCAGGGTTTCCAGAGCATGTATACCTTTGTGACCAGCCATCTGCCGCCGGGTTTTAATGAATATGATTTCGTTCCGGAAAGCTTTGATCGCGATAAAACCATTGCGCTGATTATGAACAGCAGCGGTAGCACCGGCCTGCCGAAAGGCGTTGCGCTGCCGCATCGTACCGCCTGTGTGCGCTTTAGCCATGCCCGTGATCCGATTTTTGGCAATCAGATCATTCCGGATACCGCGATCCTGAGCGTGGTGCCGTTCCACCATGGCTTCGGCATGTTTACCACCCTGGGCTATCTGATTTGCGGCTTTCGTGTGGTGCTGATGTATCGTTTTGAAGAAGAACTGTTTCTGCGTAGCCTGCAGGATTATAAAATTCAGAGCGCGCTGCTGGTGCCGACCCTGTTTAGCTTCTTTGCGAAAAGCACCCTGATTGATAAATATGATCTGAGCAACCTGCATGAAATCGCGAGCGGCGGCGCGCCGCTGAGCAAAGAAGTTGGCGAAGCGGTGGCGAAACGTTTTCATCTGCCGGGCATTCGTCAGGGTTATGGTCTGACCGAAACCACCAGCGCGATTCTGATTACCCCGGAAGGCGATGATAAACCGGGCGCCGTGGGTAAAGTTGTTCCGTTCTTCGAAGCCAAAGTGGTGGATCTGGATACCGGCAAA'
p672
sg19
I30
sg20
g21
sg22
g62
sg24
(lp673
F160
aF210
aF100
aF300
asg26
(lp674
(lp675
I3
aI33
aa(lp676
I25
aI40
aI88
aa(lp677
asg31
I0
sg32
g647
sg34
(lp678
(lp679
F2.7656434421339999
aF19352.146298316478
aa(lp680
F281.38961908141636
aF1177.6529179980275
aF0.17353020819734427
aa(lp681
asg39
I0
sbag2
(g3
g4
NtRp682
(dp683
g7
I63
sg8
g9
(g11
S'\x00\x00\x00\x00\x00\x98g@'
tRp684
sg13
S'synluc_LIV-2'
p685
sg15
(lp686
F8518.4267631038329
aF357.90850201953481
aF335.43496716395788
asg17
S'CTAGAAAGGCCTACCCCTTAGGCTTTATGCAACATGTTACAATAATTTTGGAGCCATGAACATATGGAAGATGCGAAAAATATTAAAAAAGGTCCGGCGCCGTTTTATCCGCTGGAAGATGGCACCGCCGGCGAACAGCTGCACAAAGCCATGAAACGTTATGCGCTGGTGCCGGGCACCATCGCGTTTACCGATGCCCACATTGAAGTGAATATCACCTATGCCGAATATTTTGAAATGAGCGTGCGTCTGGCGGAAGCGATGAAACGTTATGGTCTGAACACCAACCATCGTATCGTTGTGTGCAGCGAAAACAGCCTGCAGTTCTTTATGCCGGTTCTGGGCGCGCTGTTTATCGGTGTTGCCGTGGCGCCGGCCAATGATATTTATAATGAACGCGAACTGCTGAACAGCATGAATATCAGCCAGCCGACCGTTGTGTTTGTGAGCAAAAAAGGTCTGCAGAAAATCCTGAACGTGCAGAAAAAACTGCCGATTATTCAGAAAATTATCATCATGGATAGCAAAACCGATTATCAGGGTTTCCAGAGCATGTATACCTTTGTGACCAGCCATCTGCCGCCGGGTTTTAATGAATATGATTTCGTTCCGGAAAGCTTTGATCGCGATAAAACCATTGCGCTGATTATGAACAGCAGCGGTAGCACCGGCCTGCCGAAAGGCGTTGCGCTGCCGCATCGTACCGCCTGTGTGCGCTTTAGCCATGCCCGTGATCCGATTTTTGGCAATCAGATCATTCCGGATACCGCGATCCTGAGCGTGGTGCCGTTCCACCATGGCTTCGGCATGTTTACCACCCTGGGCTATCTGATTTGCGGCTTTCGTGTGGTGCTGATGTATCGTTTTGAAGAAGAACTGTTTCTGCGTAGCCTGCAGGATTATAAAATTCAGAGCGCGCTGCTGGTGCCGACCCTGTTTAGCTTCTTTGCGAAAAGCACCCTGATTGATAAATATGATCTGAGCAACCTGCATGAAATCGCGAGCGGCGGCGCGCCGCTGAGCAAAGAAGTTGGCGAAGCGGTGGCGAAACGTTTTCATCTGCCGGGCATTCGTCAGGGTTATGGTCTGACCGAAACCACCAGCGCGATTCTGATTACCCCGGAAGGCGATGATAAACCGGGCGCCGTGGGTAAAGTTGTTCCGTTCTTCGAAGCCAAAGTGGTGGATCTGGATACCGGCAAA'
p687
sg19
I30
sg20
g21
sg22
g78
sg24
(lp688
F180
aF215
aF100
aF260
asg26
(lp689
(lp690
I3
aI33
aa(lp691
I25
aI40
aI88
aa(lp692
I17
aasg31
I0
sg32
g647
sg34
(lp693
(lp694
F2.6439362673984581
aF8515.7828268364337
aa(lp695
F59.541851785191398
aF298.19312002614606
aF0.17353020819734427
aa(lp696
F335.43496716395788
aasg39
I0
sbag2
(g3
g4
NtRp697
(dp698
g7
I62
sg8
g9
(g11
S'\x00\x00\x00\x00\x00`c@'
tRp699
sg13
S'synluc_LV-1'
p700
sg15
(lp701
F288.87111858136251
aI0
aF7112.8516768170339
asg17
S'CTAGAAAGGCCTACCCCTTAGGCTTTATGCAACATGTACCATTATAACGGAGTAATGAACATATGGAAGATGCGAAAAATATTAAAAAAGGTCCGGCGCCGTTTTATCCGCTGGAAGATGGCACCGCCGGCGAACAGCTGCACAAAGCCATGAAACGTTATGCGCTGGTGCCGGGCACCATCGCGTTTACCGATGCCCACATTGAAGTGAATATCACCTATGCCGAATATTTTGAAATGAGCGTGCGTCTGGCGGAAGCGATGAAACGTTATGGTCTGAACACCAACCATCGTATCGTTGTGTGCAGCGAAAACAGCCTGCAGTTCTTTATGCCGGTTCTGGGCGCGCTGTTTATCGGTGTTGCCGTGGCGCCGGCCAATGATATTTATAATGAACGCGAACTGCTGAACAGCATGAATATCAGCCAGCCGACCGTTGTGTTTGTGAGCAAAAAAGGTCTGCAGAAAATCCTGAACGTGCAGAAAAAACTGCCGATTATTCAGAAAATTATCATCATGGATAGCAAAACCGATTATCAGGGTTTCCAGAGCATGTATACCTTTGTGACCAGCCATCTGCCGCCGGGTTTTAATGAATATGATTTCGTTCCGGAAAGCTTTGATCGCGATAAAACCATTGCGCTGATTATGAACAGCAGCGGTAGCACCGGCCTGCCGAAAGGCGTTGCGCTGCCGCATCGTACCGCCTGTGTGCGCTTTAGCCATGCCCGTGATCCGATTTTTGGCAATCAGATCATTCCGGATACCGCGATCCTGAGCGTGGTGCCGTTCCACCATGGCTTCGGCATGTTTACCACCCTGGGCTATCTGATTTGCGGCTTTCGTGTGGTGCTGATGTATCGTTTTGAAGAAGAACTGTTTCTGCGTAGCCTGCAGGATTATAAAATTCAGAGCGCGCTGCTGGTGCCGACCCTGTTTAGCTTCTTTGCGAAAAGCACCCTGATTGATAAATATGATCTGAGCAACCTGCATGAAATCGCGAGCGGCGGCGCGCCGCTGAGCAAAGAAGTTGGCGAAGCGGTGGCGAAACGTTTTCATCTGCCGGGCATTCGTCAGGGTTATGGTCTGACCGAAACCACCAGCGCGATTCTGATTACCCCGGAAGGCGATGATAAACCGGGCGCCGTGGGTAAAGTTGTTCCGTTCTTCGAAGCCAAAGTGGTGGATCTGGATACCGGCAAA'
p702
sg19
I30
sg20
g21
sg22
g94
sg24
(lp703
F100
aF160
aF80
aF280
asg26
(lp704
(lp705
I3
aI24
aI39
aI87
aa(lp706
a(lp707
I32
aasg31
I0
sg32
g647
sg34
(lp708
(lp709
F0.85826386297562529
aF49.732639843332208
aF238.10668466685732
aF0.17353020819734427
aa(lp710
a(lp711
F7112.8516768170339
aasg39
I2
sbag2
(g3
g4
NtRp712
(dp713
g7
I62
sg8
g9
(g11
S'\x00\x00\x00\x00\x00@Z@'
tRp714
sg13
S'synluc_LV-2'
p715
sg15
(lp716
F1099.9647711854143
aI0
aF6799.8376892907309
asg17
S'CTAGAAAGGCCTACCCCTTAGGCTTTATGCAACATGTACCATAATACAGGAGTTATGAACATATGGAAGATGCGAAAAATATTAAAAAAGGTCCGGCGCCGTTTTATCCGCTGGAAGATGGCACCGCCGGCGAACAGCTGCACAAAGCCATGAAACGTTATGCGCTGGTGCCGGGCACCATCGCGTTTACCGATGCCCACATTGAAGTGAATATCACCTATGCCGAATATTTTGAAATGAGCGTGCGTCTGGCGGAAGCGATGAAACGTTATGGTCTGAACACCAACCATCGTATCGTTGTGTGCAGCGAAAACAGCCTGCAGTTCTTTATGCCGGTTCTGGGCGCGCTGTTTATCGGTGTTGCCGTGGCGCCGGCCAATGATATTTATAATGAACGCGAACTGCTGAACAGCATGAATATCAGCCAGCCGACCGTTGTGTTTGTGAGCAAAAAAGGTCTGCAGAAAATCCTGAACGTGCAGAAAAAACTGCCGATTATTCAGAAAATTATCATCATGGATAGCAAAACCGATTATCAGGGTTTCCAGAGCATGTATACCTTTGTGACCAGCCATCTGCCGCCGGGTTTTAATGAATATGATTTCGTTCCGGAAAGCTTTGATCGCGATAAAACCATTGCGCTGATTATGAACAGCAGCGGTAGCACCGGCCTGCCGAAAGGCGTTGCGCTGCCGCATCGTACCGCCTGTGTGCGCTTTAGCCATGCCCGTGATCCGATTTTTGGCAATCAGATCATTCCGGATACCGCGATCCTGAGCGTGGTGCCGTTCCACCATGGCTTCGGCATGTTTACCACCCTGGGCTATCTGATTTGCGGCTTTCGTGTGGTGCTGATGTATCGTTTTGAAGAAGAACTGTTTCTGCGTAGCCTGCAGGATTATAAAATTCAGAGCGCGCTGCTGGTGCCGACCCTGTTTAGCTTCTTTGCGAAAAGCACCCTGATTGATAAATATGATCTGAGCAACCTGCATGAAATCGCGAGCGGCGGCGCGCCGCTGAGCAAAGAAGTTGGCGAAGCGGTGGCGAAACGTTTTCATCTGCCGGGCATTCGTCAGGGTTATGGTCTGACCGAAACCACCAGCGCGATTCTGATTACCCCGGAAGGCGATGATAAACCGGGCGCCGTGGGTAAAGTTGTTCCGTTCTTCGAAGCCAAAGTGGTGGATCTGGATACCGGCAAA'
p717
sg19
I30
sg20
g21
sg22
g110
sg24
(lp718
F80
aF80
aF60
aF200
asg26
(lp719
(lp720
I3
aI24
aI39
aI87
aa(lp721
a(lp722
I32
aasg31
I0
sg32
g647
sg34
(lp723
(lp724
F0.85826386297562529
aF47.544064484969454
aF1051.388912629272
aF0.17353020819734427
aa(lp725
a(lp726
F6799.8376892907309
aasg39
I2
sbag2
(g3
g4
NtRp727
(dp728
g7
I62
sg8
g9
(g11
S'\x00\x00\x00\x00\x00@J@'
tRp729
sg13
S'synluc_wt'
p730
sg15
(lp731
F546.33977395302031
aF1648.9802532283925
aF28704.180009097552
asg17
S'CTAGAAAGGCCTACCCCTTAGGCTTTATGCAACATGTACAATAATAATGGAGTCATGAACATATGGAAGATGCGAAAAATATTAAAAAAGGTCCGGCGCCGTTTTATCCGCTGGAAGATGGCACCGCCGGCGAACAGCTGCACAAAGCCATGAAACGTTATGCGCTGGTGCCGGGCACCATCGCGTTTACCGATGCCCACATTGAAGTGAATATCACCTATGCCGAATATTTTGAAATGAGCGTGCGTCTGGCGGAAGCGATGAAACGTTATGGTCTGAACACCAACCATCGTATCGTTGTGTGCAGCGAAAACAGCCTGCAGTTCTTTATGCCGGTTCTGGGCGCGCTGTTTATCGGTGTTGCCGTGGCGCCGGCCAATGATATTTATAATGAACGCGAACTGCTGAACAGCATGAATATCAGCCAGCCGACCGTTGTGTTTGTGAGCAAAAAAGGTCTGCAGAAAATCCTGAACGTGCAGAAAAAACTGCCGATTATTCAGAAAATTATCATCATGGATAGCAAAACCGATTATCAGGGTTTCCAGAGCATGTATACCTTTGTGACCAGCCATCTGCCGCCGGGTTTTAATGAATATGATTTCGTTCCGGAAAGCTTTGATCGCGATAAAACCATTGCGCTGATTATGAACAGCAGCGGTAGCACCGGCCTGCCGAAAGGCGTTGCGCTGCCGCATCGTACCGCCTGTGTGCGCTTTAGCCATGCCCGTGATCCGATTTTTGGCAATCAGATCATTCCGGATACCGCGATCCTGAGCGTGGTGCCGTTCCACCATGGCTTCGGCATGTTTACCACCCTGGGCTATCTGATTTGCGGCTTTCGTGTGGTGCTGATGTATCGTTTTGAAGAAGAACTGTTTCTGCGTAGCCTGCAGGATTATAAAATTCAGAGCGCGCTGCTGGTGCCGACCCTGTTTAGCTTCTTTGCGAAAAGCACCCTGATTGATAAATATGATCTGAGCAACCTGCATGAAATCGCGAGCGGCGGCGCGCCGCTGAGCAAAGAAGTTGGCGAAGCGGTGGCGAAACGTTTTCATCTGCCGGGCATTCGTCAGGGTTATGGTCTGACCGAAACCACCAGCGCGATTCTGATTACCCCGGAAGGCGATGATAAACCGGGCGCCGTGGGTAAAGTTGTTCCGTTCTTCGAAGCCAAAGTGGTGGATCTGGATACCGGCAAA'
p732
sg19
I30
sg20
g21
sg22
g126
sg24
(lp733
F40
aF70
aF20
aF80
asg26
(lp734
(lp735
I3
aI24
aI39
aI87
aa(lp736
I16
aa(lp737
I32
aasg31
I0
sg32
g647
sg34
(lp738
(lp739
F4.5372578078439192
aF229.70927098058996
aF311.9197149563891
aF0.17353020819734427
aa(lp740
F1648.9802532283925
aa(lp741
F28704.180009097552
aasg39
I2
sbag2
(g3
g4
NtRp742
(dp743
g7
I62
sg8
g9
(g11
S'\x00\x00\x00\x00\x00@5@'
tRp744
sg13
S'synluc_bla'
p745
sg15
(lp746
F29.294148408877682
aF410.18070671354144
aF66.371389517329845
asg17
S'CTAGAAAGGCCTACCCCTTAGGCTTTATGCATGAGTATTCAACATTTCCGTGTCGCCCTTATTCCCTTTTTTGCGGCATTTTGCCTTCCTGTTTTTGCTCACCCAGAAACGCTGGTGAAAGTAAAAGATGCTGAAGATCAGTTGGGTGCACGAGTGGGTTACATCGAACTGGATCTCAACAGCGGTAAGATCCTTGAGAGTTTTCGCCCCGAAGAACGTTTTCCAATGATGAGCACTTTTAAAGTTCTGCTATGTGGCGCGGTATTATCCCGTGTTGACGCCGGGCAAGAGCAACTCGGTCGCCGCATACACTATTCTCAGAATGACTTGGTTGAGTACTCACCAGTCACAGAAAAGCATCTTACGGATGGCATGACAGTAAGAGAATTATGCAGTGCTGCCATAACCATGAGTGATAACACTGCGGCCAACTTACTTCTGACAACGATCGGAGGACCGAAGGAGCTAACCGCTTTTTTGCACAACATGGGGGATCATGTAACTCGCCTTGATCGTTGGGAACCGGAGCTGAATGAAGCCATACCAAACGACGAGCGTGACACCACGATGCCTGCAGCAATGGCAACAACGTTGCGCAAACTATTAACTGGCGAACTACTTACTCTAGCTTCCCGGCAACAATTAATAGACTGGATGGAGGCGGATAAAGTTGCAGGACCACTTCTGCGCTCGGCCCTTCCGGCTGGCTGGTTTATTGCTGATAAATCTGGAGCCGGTGAGCGTGGGTCTCGCGGTATCATTGCAGCACTGGGGCCAGATGGTAAGCCCTCCCGTATCGTAGTTATCTACACGACGGGGAGTCAGGCAACTATGGATGAACGAAATAGACAGATCGCTGAGATAGGTGCCTCACTGATTAAGCATTGGTAAATGGAAGATGCGAAAAATATTAAAAAAGGTCCGGCGCCGTTTTATCCGCTGGAAGATGGCACCGCCGGCGAACAGCTGCACAAAGCCATGAAACGTTATGCGCTGGTGCCGGGCACCATCGCGTTTACCGATGCCCACATTGAAGTGAATATCACCTATGCCGAATATTTTGAAATGAGCGTGCGTCTGGCGGAAGCGATGAAACGTTATGGTCTGAACACCAACCATCGTATCGTTGTGTGCAGCGAAAACAGCCTGCAGTTCTTTATGCCGGTTCTGGGCGCGCTGTTTATCGGTGTTGCCGTGGCGCCGGCCAATGATATTTATAATGAACGCGAACTGCTGAACAGCATGAATATCAGCCAGCCGACCGTTGTGTTTGTGAGCAAAAAAGGTCTGCAGAAAATCCTGAACGTGCAGAAAAAACTGCCGATTATTCAGAAAATTATCATCATGGATAGCAAAACCGATTATCAGGGTTTCCAGAGCATGTATACCTTTGTGACCAGCCATCTGCCGCCGGGTTTTAATGAATATGATTTCGTTCCGGAAAGCTTTGATCGCGATAAAACCATTGCGCTGATTATGAACAGCAGCGGTAGCACCGGCCTGCCGAAAGGCGTTGCGCTGCCGCATCGTACCGCCTGTGTGCGCTTTAGCCATGCCCGTGATCCGATTTTTGGCAATCAGATCATTCCGGATACCGCGATCCTGAGCGTGGTGCCGTTCCACCATGGCTTCGGCATGTTTACCACCCTGGGCTATCTGATTTGCGGCTTTCGTGTGGTGCTGATGTATCGTTTTGAAGAAGAACTGTTTCTGCGTAGCCTGCAGGATTATAAAATTCAGAGCGCGCTGCTGGTGCCGACCCTGTTTAGCTTCTTTGCGAAAAGCACCCTGATTGATAAATATGATCTGAGCAACCTGCATGAAATCGCGAGCGGCGGCGCGCCGCTGAGCAAAGAAGTTGGCGAAGCGGTGGCGAAACGTTTTCATCTGCCGGGCATTCGTCAGGGTTATGGTCTGACCGAAACCACCAGCGCGATTCTGATTACCCCGGAAGGCGATGATAAACCGGGCGCCGTGGGTAAAGTTGTTCCGTTCTTCGAAGCCAAAGTGGTGGATCTGGATACCGGCAAA'
p747
sg19
I30
sg20
g21
sg22
g142
sg24
(lp748
F15
aF40
aF15
aF15
asg26
(lp749
(lp750
I84
aa(lp751
I19
aI40
aI64
aa(lp752
I50
aasg31
I0
sg32
g647
sg34
(lp753
(lp754
F29.294148408877682
aa(lp755
F0
aF382.42257285824485
aF27.758133855296585
aa(lp756
F66.371389517329845
aasg39
I2
sba.