(lp1
ccopy_reg
_reconstructor
p2
(cDNAClasses
TNobject
p3
c__builtin__
object
p4
NtRp5
(dp6
S'induced_mean'
p7
cnumpy.core.multiarray
scalar
p8
(cnumpy
dtype
p9
(S'f8'
I0
I1
tRp10
(I3
S'<'
NNNI-1
I-1
I0
tbS'\x00\x00\x00\x00\x00P\x84@'
tRp11
sS'name'
p12
S'wt_'
p13
sS'sequence'
p14
S'ACCGTGAACCATGGATTTTTGCTTATTGAACGAGAAAAGTCAGATCTTCGTCCACGCCGAGCCCTATGCAGTCTCCGATTATGTTAACCAGTATGTCGGTACGCACTCTATTCGCCTGCCCAAGGGCGGGCGCCCGGCAGGCAGGCTGCACCAC'
p15
sS'frame'
p16
I1
sS'utr'
p17
S''
sS'induced_list'
p18
I650
sS'RBSrates'
p19
(lp20
(lp21
F0.67942605641133935
aF541.2201498773087
aa(lp22
F670.3651253085909
aF196.87617982841618
aa(lp23
F325.49717031248355
aF44.932247696110828
aF1.4387981192222954
aasS'TNstart'
p24
I10
sS'TNstartRate'
p25
F670.3651253085909
sS'frames_sum'
p26
F1781.0090971985437
sS'gene'
p27
S'wt'
p28
sS'RBSstarts'
p29
(lp30
(lp31
I3
aI18
aa(lp32
I10
aI25
aa(lp33
I65
aI80
aI92
aasS'TNstartFrameRate'
p34
F867.24130513700709
sbag2
(g3
g4
NtRp35
(dp36
g7
g8
(g10
S'\x00\x00\x00\x00\x00\x00T@'
tRp37
sg12
S'syn_'
p38
sg14
S'ACCGTGAACCATGGACTTTTGCCTGCTGAACGAGAAGAGCCAGATTTTCGTTCACGCCGAGCCCTATGCAGTCTCCGATTATGTTAACCAGTATGTCGGTACGCACTCTATTCGCCTGCCCAAGGGCGGGCGCCCGGCAGGCAGGCTGCACCAC'
p39
sg16
I1
sg17
S''
sg18
I80
sg19
(lp40
(lp41
F0.7776386129098446
aF31.77064019798415
aa(lp42
F511.72917212311472
aa(lp43
F611.19543844973077
aF84.370579334966123
aF1.4387981192222954
aasg24
I10
sg25
F511.72917212311472
sg26
F1241.2822668379279
sg27
S'syn'
p44
sg29
(lp45
(lp46
I3
aI18
aa(lp47
I10
aa(lp48
I65
aI80
aI92
aasg34
F511.72917212311472
sbag2
(g3
g4
NtRp49
(dp50
g7
g8
(g10
S'\x00\x00\x00\x00\x00\xc0g@'
tRp51
sg12
S'syn[1-6]_'
p52
sg14
S'ACCGTGAACCATGGACTTTTGCTTATTGAACGAGAAAAGTCAGATCTTCGTCCACGCCGAGCCCTATGCAGTCTCCGATTATGTTAACCAGTATGTCGGTACGCACTCTATTCGCCTGCCCAAGGGCGGGCGCCCGGCAGGCAGGCTGCACCAC'
p53
sg16
I1
sg17
S''
sg18
I190
sg19
(lp54
(lp55
F0.9738764140991284
aF192.23577570207155
aa(lp56
F238.10672957488171
aF150.28718038991011
aa(lp57
F325.49717031248355
aF44.932247696110828
aF1.4387981192222954
aasg24
I10
sg25
F238.10672957488171
sg26
F953.47177820877914
sg27
S'syn[1-6]'
p58
sg29
(lp59
(lp60
I3
aI18
aa(lp61
I10
aI25
aa(lp62
I65
aI80
aI92
aasg34
F388.39390996479182
sbag2
(g3
g4
NtRp63
(dp64
g7
g8
(g10
S'\x00\x00\x00\x00\x00\x00t@'
tRp65
sg12
S'syn[1-13]_'
p66
sg14
S'ACCGTGAACCATGGACTTTTGCCTATTGAACGAGAAAAGTCAGATCTTCGTCCACGCCGAGCCCTATGCAGTCTCCGATTATGTTAACCAGTATGTCGGTACGCACTCTATTCGCCTGCCCAAGGGCGGGCGCCCGGCAGGCAGGCTGCACCAC'
p67
sg16
I1
sg17
S''
sg18
I320
sg19
(lp68
(lp69
F0.9738764140991284
aF432.16334283931923
aa(lp70
F535.28537978849192
aF337.85912131078663
aa(lp71
F325.49717031248355
aF44.932247696110828
aF1.4387981192222954
aasg24
I10
sg25
F535.28537978849192
sg26
F1678.1499364805136
sg27
S'syn[1-13]'
p72
sg29
(lp73
(lp74
I3
aI18
aa(lp75
I10
aI25
aa(lp76
I65
aI80
aI92
aasg34
F873.14450109927861
sbag2
(g3
g4
NtRp77
(dp78
g7
g8
(g10
S'\x00\x00\x00\x00\x00\xc0b@'
tRp79
sg12
S'syn[1-15]_'
p80
sg14
S'ACCGTGAACCATGGACTTTTGCCTGTTGAACGAGAAAAGTCAGATCTTCGTCCACGCCGAGCCCTATGCAGTCTCCGATTATGTTAACCAGTATGTCGGTACGCACTCTATTCGCCTGCCCAAGGGCGGGCGCCCGGCAGGCAGGCTGCACCAC'
p81
sg16
I1
sg17
S''
sg18
I150
sg19
(lp82
(lp83
F0.9738764140991284
aF329.89572593192395
aa(lp84
F408.61484869559297
aF257.90776088333024
aa(lp85
F325.49717031248355
aF44.932247696110828
aF1.4387981192222954
aasg24
I10
sg25
F408.61484869559297
sg26
F1369.260428052763
sg27
S'syn[1-15]'
p86
sg29
(lp87
(lp88
I3
aI18
aa(lp89
I10
aI25
aa(lp90
I65
aI80
aI92
aasg34
F666.52260957892327
sbag2
(g3
g4
NtRp91
(dp92
g7
g8
(g10
S'\x00\x00\x00\x00\x00\xc0b@'
tRp93
sg12
S'syn[1-16]_'
p94
sg14
S'ACCGTGAACCATGGACTTTTGCCTGCTGAACGAGAAAAGTCAGATCTTCGTCCACGCCGAGCCCTATGCAGTCTCCGATTATGTTAACCAGTATGTCGGTACGCACTCTATTCGCCTGCCCAAGGGCGGGCGCCCGGCAGGCAGGCTGCACCAC'
p95
sg16
I1
sg17
S''
sg18
I150
sg19
(lp96
(lp97
F0.9738764140991284
aF432.16334283931923
aa(lp98
F489.20959826192177
aa(lp99
F325.49717031248355
aF44.932247696110828
aF1.4387981192222954
aasg24
I10
sg25
F489.20959826192177
sg26
F1294.2150336431569
sg27
S'syn[1-16]'
p100
sg29
(lp101
(lp102
I3
aI18
aa(lp103
I10
aa(lp104
I65
aI80
aI92
aasg34
F489.20959826192177
sbag2
(g3
g4
NtRp105
(dp106
g7
g8
(g10
S'\x00\x00\x00\x00\x00\x00t@'
tRp107
sg12
S'syn[1-30]_'
p108
sg14
S'ACCGTGAACCATGGACTTTTGCCTGCTGAACGAGAAGAGCCAGATCTTCGTCCACGCCGAGCCCTATGCAGTCTCCGATTATGTTAACCAGTATGTCGGTACGCACTCTATTCGCCTGCCCAAGGGCGGGCGCCCGGCAGGCAGGCTGCACCAC'
p109
sg16
I1
sg17
S''
sg18
I320
sg19
(lp110
(lp111
F0.7776386129098446
aF134.11352107469642
aa(lp112
F511.72917212311472
aa(lp113
F446.02957942639324
aF44.932247696110828
aF1.4387981192222954
aasg24
I10
sg25
F511.72917212311472
sg26
F1139.0209570524473
sg27
S'syn[1-30]'
p114
sg29
(lp115
(lp116
I3
aI18
aa(lp117
I10
aa(lp118
I65
aI80
aI92
aasg34
F511.72917212311472
sbag2
(g3
g4
NtRp119
(dp120
g7
g8
(g10
S'\x00\x00\x00\x00\x00\x80a@'
tRp121
sg12
S'syn[1-36]_'
p122
sg14
S'ACCGTGAACCATGGACTTTTGCCTGCTGAACGAGAAGAGCCAGATTTTCGTCCACGCCGAGCCCTATGCAGTCTCCGATTATGTTAACCAGTATGTCGGTACGCACTCTATTCGCCTGCCCAAGGGCGGGCGCCCGGCAGGCAGGCTGCACCAC'
p123
sg16
I1
sg17
S''
sg18
I140
sg19
(lp124
(lp125
F0.7776386129098446
aF146.74488668720898
aa(lp126
F511.72917212311472
aa(lp127
F611.19543844973077
aF44.932247696110828
aF1.4387981192222954
aasg24
I10
sg25
F511.72917212311472
sg26
F1316.8181816882975
sg27
S'syn[1-36]'
p128
sg29
(lp129
(lp130
I3
aI18
aa(lp131
I10
aa(lp132
I65
aI80
aI92
aasg34
F511.72917212311472
sbag2
(g3
g4
NtRp133
(dp134
g7
g8
(g10
S'\x00\x00\x00\x00\x00\x00d@'
tRp135
sg12
S'syn6_'
p136
sg14
S'ACCGTGAACCATGGACTTTTGCTTATTGAACGAGAAAAGTCAGATCTTCGTCCACGCCGAGCCCTATGCAGTCTCCGATTATGTTAACCAGTATGTCGGTACGCACTCTATTCGCCTGCCCAAGGGCGGGCGCCCGGCAGGCAGGCTGCACCAC'
p137
sg16
I1
sg17
S''
sg18
I160
sg19
(lp138
(lp139
F0.9738764140991284
aF192.23577570207155
aa(lp140
F238.10672957488171
aF150.28718038991011
aa(lp141
F325.49717031248355
aF44.932247696110828
aF1.4387981192222954
aasg24
I10
sg25
F238.10672957488171
sg26
F953.47177820877914
sg27
S'syn6'
p142
sg29
(lp143
(lp144
I3
aI18
aa(lp145
I10
aI25
aa(lp146
I65
aI80
aI92
aasg34
F388.39390996479182
sbag2
(g3
g4
NtRp147
(dp148
g7
g8
(g10
S'\x00\x00\x00\x00\x00\xc0\x82@'
tRp149
sg12
S'syn13_'
p150
sg14
S'ACCGTGAACCATGGATTTTTGCCTATTGAACGAGAAAAGTCAGATCTTCGTCCACGCCGAGCCCTATGCAGTCTCCGATTATGTTAACCAGTATGTCGGTACGCACTCTATTCGCCTGCCCAAGGGCGGGCGCCCGGCAGGCAGGCTGCACCAC'
p151
sg16
I1
sg17
S''
sg18
I600
sg19
(lp152
(lp153
F0.67942605641133935
aF775.77469075104136
aa(lp154
F1099.7872511597973
aF831.07414669595971
aa(lp155
F325.49717031248355
aF44.932247696110828
aF1.4387981192222954
aasg24
I10
sg25
F1099.7872511597973
sg26
F3079.1837307910264
sg27
S'syn13'
p156
sg29
(lp157
(lp158
I3
aI18
aa(lp159
I10
aI25
aa(lp160
I65
aI80
aI92
aasg34
F1930.8613978557569
sbag2
(g3
g4
NtRp161
(dp162
g7
g8
(g10
S'\x00\x00\x00\x00\x00\x00y@'
tRp163
sg12
S'syn15_'
p164
sg14
S'ACCGTGAACCATGGATTTTTGCTTGTTGAACGAGAAAAGTCAGATCTTCGTCCACGCCGAGCCCTATGCAGTCTCCGATTATGTTAACCAGTATGTCGGTACGCACTCTATTCGCCTGCCCAAGGGCGGGCGCCCGGCAGGCAGGCTGCACCAC'
p165
sg16
I1
sg17
S''
sg18
I400
sg19
(lp166
(lp167
F0.33068835291626647
aF122.56942603657222
aa(lp168
F151.81672127808858
aF135.30628507445326
aF100.23400432398908
aa(lp169
F325.49717031248355
aF44.932247696110828
aF1.4387981192222954
aasg24
I10
sg25
F151.81672127808858
sg26
F882.12534119383599
sg27
S'syn15'
p170
sg29
(lp171
(lp172
I3
aI18
aa(lp173
I10
aI22
aI25
aa(lp174
I65
aI80
aI92
aasg34
F387.35701067653093
sbag2
(g3
g4
NtRp175
(dp176
g7
g8
(g10
S'\x00\x00\x00\x00\x00\xc0\x82@'
tRp177
sg12
S'syn16_'
p178
sg14
S'ACCGTGAACCATGGATTTTTGCTTACTGAACGAGAAAAGTCAGATCTTCGTCCACGCCGAGCCCTATGCAGTCTCCGATTATGTTAACCAGTATGTCGGTACGCACTCTATTCGCCTGCCCAAGGGCGGGCGCCCGGCAGGCAGGCTGCACCAC'
p179
sg16
I1
sg17
S''
sg18
I600
sg19
(lp180
(lp181
F0.67942605641133935
aF413.14520815140935
aa(lp182
F427.42443930598381
aa(lp183
F325.49717031248355
aF44.932247696110828
aF1.4387981192222954
aasg24
I10
sg25
F427.42443930598381
sg26
F1213.117289641621
sg27
S'syn16'
p184
sg29
(lp185
(lp186
I3
aI18
aa(lp187
I10
aa(lp188
I65
aI80
aI92
aasg34
F427.42443930598381
sbag2
(g3
g4
NtRp189
(dp190
g7
g8
(g10
S'\x00\x00\x00\x00\x00\xc0\x82@'
tRp191
sg12
S'syn27_'
p192
sg14
S'ACCGTGAACCATGGATTTTTGCTTATTGAACGAGAAGAGTCAGATCTTCGTCCACGCCGAGCCCTATGCAGTCTCCGATTATGTTAACCAGTATGTCGGTACGCACTCTATTCGCCTGCCCAAGGGCGGGCGCCCGGCAGGCAGGCTGCACCAC'
p193
sg16
I1
sg17
S''
sg18
I600
sg19
(lp194
(lp195
F0.67942605641133935
aF134.11352107469642
aa(lp196
F559.92594017363308
aF164.44184807118953
aa(lp197
F446.02957942639324
aF44.932247696110828
aF1.4387981192222954
aasg24
I10
sg25
F559.92594017363308
sg26
F1351.5613606176566
sg27
S'syn27'
p198
sg29
(lp199
(lp200
I3
aI18
aa(lp201
I10
aI25
aa(lp202
I65
aI80
aI92
aasg34
F724.36778824482258
sbag2
(g3
g4
NtRp203
(dp204
g7
g8
(g10
S'\x00\x00\x00\x00\x00\x80q@'
tRp205
sg12
S'syn30_'
p206
sg14
S'ACCGTGAACCATGGATTTTTGCTTATTGAACGAGAAAAGCCAGATCTTCGTCCACGCCGAGCCCTATGCAGTCTCCGATTATGTTAACCAGTATGTCGGTACGCACTCTATTCGCCTGCCCAAGGGCGGGCGCCCGGCAGGCAGGCTGCACCAC'
p207
sg16
I1
sg17
S''
sg18
I280
sg19
(lp208
(lp209
F0.67942605641133935
aF494.6335209031011
aa(lp210
F511.72917212311472
aF95.82302448007637
aa(lp211
F165.71778670727042
aF44.932247696110828
aF1.4387981192222954
aasg24
I10
sg25
F511.72917212311472
sg26
F1314.953976085307
sg27
S'syn30'
p212
sg29
(lp213
(lp214
I3
aI18
aa(lp215
I10
aI25
aa(lp216
I65
aI80
aI92
aasg34
F607.55219660319108
sbag2
(g3
g4
NtRp217
(dp218
g7
g8
(g10
S'\x00\x00\x00\x00\x00\xc0\x82@'
tRp219
sg12
S'syn36_'
p220
sg14
S'ACCGTGAACCATGGATTTTTGCTTATTGAACGAGAAAAGTCAGATTTTCGTCCACGCCGAGCCCTATGCAGTCTCCGATTATGTTAACCAGTATGTCGGTACGCACTCTATTCGCCTGCCCAAGGGCGGGCGCCCGGCAGGCAGGCTGCACCAC'
p221
sg16
I1
sg17
S''
sg18
I600
sg19
(lp222
(lp223
F0.67942605641133935
aF210.34133543415413
aa(lp224
F670.3651253085909
aF246.5580603249465
aa(lp225
F611.19543844973077
aF44.932247696110828
aF1.4387981192222954
aasg24
I10
sg25
F670.3651253085909
sg26
F1785.5104313891666
sg27
S'syn36'
p226
sg29
(lp227
(lp228
I3
aI18
aa(lp229
I10
aI25
aa(lp230
I65
aI80
aI92
aasg34
F916.9231856335374
sbag2
(g3
g4
NtRp231
(dp232
g7
g8
(g10
S'\x00\x00\x00\x00\x00\xc0r@'
tRp233
sg12
S'syn42_'
p234
sg14
S'ACCGTGAACCATGGATTTTTGCTTATTGAACGAGAAAAGTCAGATCTTCGTTCACGCCGAGCCCTATGCAGTCTCCGATTATGTTAACCAGTATGTCGGTACGCACTCTATTCGCCTGCCCAAGGGCGGGCGCCCGGCAGGCAGGCTGCACCAC'
p235
sg16
I1
sg17
S''
sg18
I300
sg19
(lp236
(lp237
F0.67942605641133935
aF167.95718836247593
aa(lp238
F670.3651253085909
aF27.177161844516295
aa(lp239
F22.634797106565351
aF84.370579334966123
aF1.4387981192222954
aasg24
I10
sg25
F670.3651253085909
sg26
F974.62307613274811
sg27
S'syn42'
p240
sg29
(lp241
(lp242
I3
aI18
aa(lp243
I10
aI25
aa(lp244
I65
aI80
aI92
aasg34
F697.54228715310717
sbag2
(g3
g4
NtRp245
(dp246
g7
g8
(g10
S'\x00\x00\x00\x00\x00\x80f@'
tRp247
sg12
S'syn6-30_'
p248
sg14
S'ACCGTGAACCATGGACTTTTGCTTATTGAACGAGAAAAGCCAGATCTTCGTCCACGCCGAGCCCTATGCAGTCTCCGATTATGTTAACCAGTATGTCGGTACGCACTCTATTCGCCTGCCCAAGGGCGGGCGCCCGGCAGGCAGGCTGCACCAC'
p249
sg16
I1
sg17
S''
sg18
I180
sg19
(lp250
(lp251
F0.9738764140991284
aF240.74664605678791
aa(lp252
F467.68103924708942
aF205.93889586854945
aa(lp253
F165.71778670727042
aF44.932247696110828
aF1.4387981192222954
aasg24
I10
sg25
F467.68103924708942
sg26
F1127.4292901091294
sg27
S'syn6-30'
p254
sg29
(lp255
(lp256
I3
aI18
aa(lp257
I10
aI25
aa(lp258
I65
aI80
aI92
aasg34
F673.6199351156389
sbag2
(g3
g4
NtRp259
(dp260
g7
g8
(g10
S'\x00\x00\x00\x00\x00\x00Y@'
tRp261
sg12
S'A-D7_'
p262
sg14
S'ACCGTGAACCATGGATTTTTGCTTATTGAACGAGAAAAGCGAGATCTTCGTCCACGCCGAGCCCTATGCAGTCTCCGATTATGTTAACCAGTATGTCGGTACGCACTCTATTCGCCTGCCCAAGGGCGGGCGCCCGGCAGGCAGGCTGCACCAC'
p263
sg16
I1
sg17
S''
sg18
I100
sg19
(lp264
(lp265
F0.67942605641133935
aF89.446985540817465
aa(lp266
F92.538475306200752
aF40.748437141257526
aa(lp267
F3.2683814658178156
aF44.932247696110828
aF1.4387981192222954
aasg24
I10
sg25
F92.538475306200752
sg26
F273.05275132583802
sg27
S'A-D7'
p268
sg29
(lp269
(lp270
I3
aI18
aa(lp271
I10
aI25
aa(lp272
I65
aI80
aI92
aasg34
F133.28691244745829
sbag2
(g3
g4
NtRp273
(dp274
g7
g8
(g10
S'\x00\x00\x00\x00\x00\x00Y@'
tRp275
sg12
S'B-D5_'
p276
sg14
S'ACCGTGAACCATGGATTTTTGCTTATCGAATGAGAAAAGTAAGATCTTCGTCCACGCCGAGCCCTATGCAGTCTCCGATTATGTTAACCAGTATGTCGGTACGCACTCTATTCGCCTGCCCAAGGGCGGGCGCCCGGCAGGCAGGCTGCACCAC'
p277
sg16
I1
sg17
S''
sg18
I100
sg19
(lp278
(lp279
F0.7434172099984504
aF62.402797484418635
aa(lp280
F64.559579052717893
aa(lp281
F34.567918378655889
aF151.4532900038335
aF44.932247696110828
aF1.4387981192222954
aasg24
I10
sg25
F64.559579052717893
sg26
F360.0980479449575
sg27
S'B-D5'
p282
sg29
(lp283
(lp284
I3
aI18
aa(lp285
I10
aa(lp286
I29
aI65
aI80
aI92
aasg34
F64.559579052717893
sbag2
(g3
g4
NtRp287
(dp288
g7
g8
(g10
S'\x00\x00\x00\x00\x00\x00Y@'
tRp289
sg12
S'B-B3_'
p290
sg14
S'ACCGTGAACCATGGATTTTTGCTTGTTGAACGAAAAAAGCGAGATCTTCGTCCACGCCGAGCCCTATGCAGTCTCCGATTATGTTAACCAGTATGTCGGTACGCACTCTATTCGCCTGCCCAAGGGCGGGCGCCCGGCAGGCAGGCTGCACCAC'
p291
sg16
I1
sg17
S''
sg18
I100
sg19
(lp292
(lp293
F0.71070178222484381
aF81.747653708482687
aa(lp294
F84.573037182904471
aF50.271684041577586
aF37.240932251040611
aa(lp295
F8.4097303230248102
aF44.932247696110828
aF1.4387981192222954
aasg24
I10
sg25
F84.573037182904471
sg26
F309.32478510458816
sg27
S'B-B3'
p296
sg29
(lp297
(lp298
I3
aI18
aa(lp299
I10
aI22
aI25
aa(lp300
I65
aI80
aI92
aasg34
F172.08565347552266
sbag2
(g3
g4
NtRp301
(dp302
g7
g8
(g10
S'\x00\x00\x00\x00\x00\x00T@'
tRp303
sg12
S'wt36/42_'
p304
sg14
S'ACCGTGAACCATGGACTTTTGCCTGCTGAACGAGAAGAGCCAGATCTTCGTCCACGCCGAGCCCTATGCAGTCTCCGATTATGTTAACCAGTATGTCGGTACGCACTCTATTCGCCTGCCCAAGGGCGGGCGCCCGGCAGGCAGGCTGCACCAC'
p305
sg16
I1
sg17
S''
sg18
I80
sg19
(lp306
(lp307
F0.7776386129098446
aF134.11352107469642
aa(lp308
F511.72917212311472
aa(lp309
F446.02957942639324
aF44.932247696110828
aF1.4387981192222954
aasg24
I10
sg25
F511.72917212311472
sg26
F1139.0209570524473
sg27
S'wt36/42'
p310
sg29
(lp311
(lp312
I3
aI18
aa(lp313
I10
aa(lp314
I65
aI80
aI92
aasg34
F511.72917212311472
sbag2
(g3
g4
NtRp315
(dp316
g7
g8
(g10
S'\x00\x00\x00\x00\x00\xc0r@'
tRp317
sg12
S'wt[1-42]_'
p318
sg14
S'ACCGTGAACCATGGATTTTTGCTTATTGAACGAGAAAAGTCAGATCTTCGTCCACGCCGAGCCCTATGCAGTCTCCGATTATGTTAACCAGTATGTCGGTACGCACTCTATTCGCCTGCCCAAGGGCGGGCGCCCGGCAGGCAGGCTGCACCAC'
p319
sg16
I1
sg17
S''
sg18
I300
sg19
(lp320
(lp321
F0.67942605641133935
aF541.2201498773087
aa(lp322
F670.3651253085909
aF196.87617982841618
aa(lp323
F325.49717031248355
aF44.932247696110828
aF1.4387981192222954
aasg24
I10
sg25
F670.3651253085909
sg26
F1781.0090971985437
sg27
S'wt[1-42]'
p324
sg29
(lp325
(lp326
I3
aI18
aa(lp327
I10
aI25
aa(lp328
I65
aI80
aI92
aasg34
F867.24130513700709
sbag2
(g3
g4
NtRp329
(dp330
g7
g8
(g10
S'\x00\x00\x00\x00\x00\x00y@'
tRp331
sg12
S'wt[1-50]_'
p332
sg14
S'ACCGTGAACCATGGATTTTTGCTTATTGAACGAGAAAAGTCAGATCTTCGTCCACGCCGAGCCCTATGCAGTCTCCGATTATGTTAACCAGTATGTCGGTACGCACTCTATTCGCCTGCCCAAGGGCGGGCGCCCGGCAGGCAGGCTGCACCAC'
p333
sg16
I1
sg17
S''
sg18
I400
sg19
(lp334
(lp335
F0.67942605641133935
aF541.2201498773087
aa(lp336
F670.3651253085909
aF196.87617982841618
aa(lp337
F325.49717031248355
aF44.932247696110828
aF1.4387981192222954
aasg24
I10
sg25
F670.3651253085909
sg26
F1781.0090971985437
sg27
S'wt[1-50]'
p338
sg29
(lp339
(lp340
I3
aI18
aa(lp341
I10
aI25
aa(lp342
I65
aI80
aI92
aasg34
F867.24130513700709
sbag2
(g3
g4
NtRp343
(dp344
g7
g8
(g10
S'\x00\x00\x00\x00\x00\xc0r@'
tRp345
sg12
S'wt[1-115]_'
p346
sg14
S'ACCGTGAACCATGGATTTTTGCTTATTGAACGAGAAAAGTCAGATCTTCGTCCACGCCGAGCCCTATGCAGTCTCCGATTATGTTAACCAGTATGTCGGTACGCACTCTATTCGCCTGCCCAAGGGCGGGCGCCCGGCAGGCAGGCTGCACCAC'
p347
sg16
I1
sg17
S''
sg18
I300
sg19
(lp348
(lp349
F0.67942605641133935
aF541.2201498773087
aa(lp350
F670.3651253085909
aF196.87617982841618
aa(lp351
F325.49717031248355
aF44.932247696110828
aF1.4387981192222954
aasg24
I10
sg25
F670.3651253085909
sg26
F1781.0090971985437
sg27
S'wt[1-115]'
p352
sg29
(lp353
(lp354
I3
aI18
aa(lp355
I10
aI25
aa(lp356
I65
aI80
aI92
aasg34
F867.24130513700709
sbag2
(g3
g4
NtRp357
(dp358
g7
g8
(g10
S'\x00\x00\x00\x00\x00\x00Y\xc0'
tRp359
sg12
S'T7-UTR_wt'
p360
sg14
S'AGGGGAATTGTGAGCGGATAACAATTCCCCTCTAGAAATAATTTTGTTTAACTTTAAGAAGGAGATATACCATGGGCCATCATCATCATCATCATCATCATCATCACAGCAGCGGCCATATCGAAGGTCGTCATATGGATTTTTGCTTATTGAACGAGAAAAGTCAGATCTTCGTCCACGCCGAGCCCTATGCAGTCTCCGATTATGTTAACCAGTATGTCGGTACGCACTCTATTCGCCTGCCCAAGGGCGGGCGCCCGGCAGGCAGGCTGCACCACAGAATCTTCGGATGCCTCGACCTGTGTCGAATCAGCTACGGCGGTAGCGTGAGGGTAATCTCGCCTGGATTAGAGACCTGTTATCATCTGCAAATAATACTCAAAGGCCATTGCCTGTGGCGTGGCCATGCCCAGGAGCACTATTTTGCGCCGGGCGAACTATTGCTGCTCAATCCGGATGACCAAGCCGACCTGACCTATTCAGAAGATTGCGAGAAATTTATCGTTAAATTGCCCTCAGTGGTCCTTGATCGGGCATGCAGTGACAACAATTGGCACAAGCCGAGGGAGGGTATCCGTTTCGCCGCGCGACACAATCTCCAGCAACTCGATGGCTTTATCAATCTACTCGGGTTAGTTTGTGACGAAGCGGAACATACAAAGTCGATGCCTCGGGTCCAAGAGCACTATGCGGGGATCATCGCTTCCAAGCTGCTCGAAATGCTGGGCAGCAATGTCAGCCGTGAAATTTTCAGCAAAGGTAACCCGTCTTTCGAGCGAGTCGTTCAATTCATTGAGGAGAATCTCAAACGGAATATCAGCCTTGAGCGGTTAGCGGAGCTGGCGATGATGAGTCCACGCTCGCTCTACAATTTGTTCGAGAAGCATGCCGGCACCACGCCGAAGAACTACATCCGCAACCGCAAGCTCGAAAGCATCCGCGCCTGCTTGAACGATCCCAGTGCCAATGTGCGTAGTATAACTGAGATAGCCCTAGACTACGGCTTCTTACATTTGGGACGCTTCGCTGAAAACTATAGGAGCGCGTTCGGCGAGTTGCCTTCCGACACCCTGCGTCAATGCAAAAAGGAAGTGGCTTGA'
p361
sg16
I2
sg17
S'wt'
p362
sg18
I-100
sg19
(lp363
(lp364
F30.803382558942999
aF325.49717031248355
aF110.52544406171874
aF69.006117794646741
aa(lp365
F0.31456338541707113
aF265.76394599709283
aF210.34133543415396
aa(lp366
F118579.63970559194
aF218.78960404128352
aF29.736819251298687
aasg24
I71
sg25
F118579.63970559194
sg26
F119840.41808842898
sg27
S'T7-UTR'
p367
sg29
(lp368
(lp369
I9
aI189
aI204
aI216
aa(lp370
I7
aI43
aI142
aa(lp371
I71
aI134
aI149
aasg34
F118828.16612888452
sbag2
(g3
g4
NtRp372
(dp373
g7
g8
(g10
S'\x00\x00\x00\x00\x00\x00Y\xc0'
tRp374
sg12
S'T7-UTR_syn'
p375
sg14
S'AGGGGAATTGTGAGCGGATAACAATTCCCCTCTAGAAATAATTTTGTTTAACTTTAAGAAGGAGATATACCATGGGCCATCATCATCATCATCATCATCATCATCACAGCAGCGGCCATATCGAAGGTCGTCATATGGACTTTTGCCTGCTGAACGAGAAGAGCCAGATTTTCGTTCACGCGGAGCCGTACGCAGTTTCGGATTATGTAAACCAGTATGTCGGAACGCACTCTATTCGTCTGCCGAAGGGCGGTCCGCCGGCAGGACGTCTGCATCATCGTATCTTCGGGTGCCTGGACCTGTGTCGCATCAGCTACGGCGGTTCTGTGCGCGTTATCTCACCAGGTCTGGAAACCTGCTATCACCTGCAAATTATCCTGAAAGGTCACTGTCTGTGGCGCGGTCATGCCCAAGAACACTACTTTGCACCGGGCGAGCTGCTGCTGCTGAACCCAGATGATCAGGCGGATCTGACGTATTCGGAGGACTGTGAAAAGTTCATCGTGAAACTGCCTAGTGTGGTTCTGGATCGTGCTTGTAGCGACAATAACTGGCACAAGCCGCGCGAAGGTATCCGCTTTGCGGCACGTCATAACCTGCAACAGCTGGATGGCTTTATCAATCTGCTGGGTCTGGTGTGCGATGAAGCCGAACACACCAAAAGCATGCCGCGTGTTCAGGAACACTATGCCGGCATCATCGCGTCAAAACTGCTGGAGATGCTGGGGAGCAACGTATCCCGTGAGATTTTCTCAAAAGGTAATCCGTCCTTCGAGCGCGTTGTTCAGTTTATTGAAGAGAATCTGAAGCGCAACATTTCTCTGGAACGTCTGGCTGAACTGGCAATGATGTCTCCTCGCTCTCTGTATAACCTGTTTGAAAAACACGCGGGCACCACCCCGAAAAATTACATCCGTAACCGTAAACTGGAGAGTATTCGTGCATGCCTGAACGATCCCTTCAGCAAATGTTCGTAGCATTACTGAAATCGCCCTGGATTATGGTTTTCTGCATCTGGGCCGTTTTGCTGAGAATTACCGTTCGGCCTTCGGCGAACTGCCGAGCGACACGCTGCGCCAGTGCAAAAAGGAAGTTGCCTGA'
p376
sg16
I2
sg17
S'syn'
p377
sg18
I-100
sg19
(lp378
(lp379
F30.803382558942999
aF11.20111521571366
aF176.28269953073243
aa(lp380
F0.31456338541707113
aF265.76394599709283
aF4.38567952363268
aa(lp381
F118579.63970559194
aF39.564788317279579
aasg24
I71
sg25
F118579.63970559194
sg26
F119107.95588012075
sg27
g367
sg29
(lp382
(lp383
I9
aI204
aI216
aa(lp384
I7
aI43
aI142
aa(lp385
I71
aI134
aasg34
F118619.20449390922
sbag2
(g3
g4
NtRp386
(dp387
g7
g8
(g10
S'\x00\x00\x00\x00\x00\x00Y\xc0'
tRp388
sg12
S'LII-10-UTR_wt'
p389
sg14
S'AACATGTACCACAATAATGGAGTTTTGAACATATGGATTTTTGCTTATTGAACGAGAAAAGTCAGATCTTCGTCCACGCCGAGCCCTATGCAGTCTCCGATTATGTTAACCAGTATGTCGGTACGCACTCTATTCGCCTGCCCAAGGGCGGGCGCCCGGCAGGCAGGCTGCACCACAGAATCTTCGGATGCCTCGACCTGTGTCGAATCAGCTACGGCGGTAGCGTGAGGGTAATCTCGCCTGGATTAGAGACCTGTTATCATCTGCAAATAATACTCAAAGGCCATTGCCTGTGGCGTGGCCATGCCCAGGAGCACTATTTTGCGCCGGGCGAACTATTGCTGCTCAATCCGGATGACCAAGCCGACCTGACCTATTCAGAAGATTGCGAGAAATTTATCGTTAAATTGCCCTCAGTGGTCCTTGATCGGGCATGCAGTGACAACAATTGGCACAAGCCGAGGGAGGGTATCCGTTTCGCCGCGCGACACAATCTCCAGCAACTCGATGGCTTTATCAATCTACTCGGGTTAGTTTGTGACGAAGCGGAACATACAAAGTCGATGCCTCGGGTCCAAGAGCACTATGCGGGGATCATCGCTTCCAAGCTGCTCGAAATGCTGGGCAGCAATGTCAGCCGTGAAATTTTCAGCAAAGGTAACCCGTCTTTCGAGCGAGTCGTTCAATTCATTGAGGAGAATCTCAAACGGAATATCAGCCTTGAGCGGTTAGCGGAGCTGGCGATGATGAGTCCACGCTCGCTCTACAATTTGTTCGAGAAGCATGCCGGCACCACGCCGAAGAACTACATCCGCAACCGCAAGCTCGAAAGCATCCGCGCCTGCTTGAACGATCCCAGTGCCAATGTGCGTAGTATAACTGAGATAGCCCTAGACTACGGCTTCTTACATTTGGGACGCTTCGCTGAAAACTATAGGAGCGCGTTCGGCGAGTTGCCTTCCGACACCCTGCGTCAATGCAAAAAGGAAGTGGCTTGA'
p390
sg16
I0
sg17
g362
sg18
I-100
sg19
(lp391
(lp392
F2.6439367660570974
aF55.642531956233228
aF325.49717031248355
aF44.932247696110828
aF1.4387981192222954
aa(lp393
F960.88864742831129
aF26.263327177410847
aa(lp394
F1843.6889307061108
aF131.30652800201707
aasg24
I3
sg25
F2.6439367660570974
sg26
F3392.3021181639569
sg27
S'LII-10-UTR'
p395
sg29
(lp396
(lp397
I3
aI24
aI87
aI102
aI114
aa(lp398
I16
aI40
aa(lp399
I32
aI47
aasg34
F430.15468485010695
sbag2
(g3
g4
NtRp400
(dp401
g7
g8
(g10
S'\x00\x00\x00\x00\x00\x00Y\xc0'
tRp402
sg12
S'LII-10-UTR_syn'
p403
sg14
S'AACATGTACCACAATAATGGAGTTTTGAACATATGGACTTTTGCCTGCTGAACGAGAAGAGCCAGATTTTCGTTCACGCGGAGCCGTACGCAGTTTCGGATTATGTAAACCAGTATGTCGGAACGCACTCTATTCGTCTGCCGAAGGGCGGTCCGCCGGCAGGACGTCTGCATCATCGTATCTTCGGGTGCCTGGACCTGTGTCGCATCAGCTACGGCGGTTCTGTGCGCGTTATCTCACCAGGTCTGGAAACCTGCTATCACCTGCAAATTATCCTGAAAGGTCACTGTCTGTGGCGCGGTCATGCCCAAGAACACTACTTTGCACCGGGCGAGCTGCTGCTGCTGAACCCAGATGATCAGGCGGATCTGACGTATTCGGAGGACTGTGAAAAGTTCATCGTGAAACTGCCTAGTGTGGTTCTGGATCGTGCTTGTAGCGACAATAACTGGCACAAGCCGCGCGAAGGTATCCGCTTTGCGGCACGTCATAACCTGCAACAGCTGGATGGCTTTATCAATCTGCTGGGTCTGGTGTGCGATGAAGCCGAACACACCAAAAGCATGCCGCGTGTTCAGGAACACTATGCCGGCATCATCGCGTCAAAACTGCTGGAGATGCTGGGGAGCAACGTATCCCGTGAGATTTTCTCAAAAGGTAATCCGTCCTTCGAGCGCGTTGTTCAGTTTATTGAAGAGAATCTGAAGCGCAACATTTCTCTGGAACGTCTGGCTGAACTGGCAATGATGTCTCCTCGCTCTCTGTATAACCTGTTTGAAAAACACGCGGGCACCACCCCGAAAAATTACATCCGTAACCGTAAACTGGAGAGTATTCGTGCATGCCTGAACGATCCCTTCAGCAAATGTTCGTAGCATTACTGAAATCGCCCTGGATTATGGTTTTCTGCATCTGGGCCGTTTTGCTGAGAATTACCGTTCGGCCTTCGGCGAACTGCCGAGCGACACGCTGCGCCAGTGCAAAAAGGAAGTTGCCTGA'
p404
sg16
I0
sg17
g377
sg18
I-100
sg19
(lp405
(lp406
F2.6439367660570974
aF53.19388103603378
aF8.9440709039538433
aF10.34812584341117
aa(lp407
F960.88864742831129
aF13.371238979531329
aa(lp408
F4535.1512160297798
aasg24
I3
sg25
F2.6439367660570974
sg26
F5584.5411169870786
sg27
g395
sg29
(lp409
(lp410
I3
aI24
aI102
aI114
aa(lp411
I16
aI40
aa(lp412
I32
aasg34
F75.130014549455893
sbag2
(g3
g4
NtRp413
(dp414
g7
g8
(g10
S'\x00\x00\x00\x00\x00\x00Y\xc0'
tRp415
sg12
S'His-UTR_wt'
p416
sg14
S'ACCGTGAACCATGGGCCATCATCATCATCATCATCATCATCATCACAGCAGCGGCCATATCGAAGGTCGTCCCATGGATTTTTGCTTATTGAACGAGAAAAGTCAGATCTTCGTCCACGCCGAGCCCTATGCAGTCTCCGATTATGTTAACCAGTATGTCGGTACGCACTCTATTCGCCTGCCCAAGGGCGGGCGCCCGGCAGGCAGGCTGCACCACAGAATCTTCGGATGCCTCGACCTGTGTCGAATCAGCTACGGCGGTAGCGTGAGGGTAATCTCGCCTGGATTAGAGACCTGTTATCATCTGCAAATAATACTCAAAGGCCATTGCCTGTGGCGTGGCCATGCCCAGGAGCACTATTTTGCGCCGGGCGAACTATTGCTGCTCAATCCGGATGACCAAGCCGACCTGACCTATTCAGAAGATTGCGAGAAATTTATCGTTAAATTGCCCTCAGTGGTCCTTGATCGGGCATGCAGTGACAACAATTGGCACAAGCCGAGGGAGGGTATCCGTTTCGCCGCGCGACACAATCTCCAGCAACTCGATGGCTTTATCAATCTACTCGGGTTAGTTTGTGACGAAGCGGAACATACAAAGTCGATGCCTCGGGTCCAAGAGCACTATGCGGGGATCATCGCTTCCAAGCTGCTCGAAATGCTGGGCAGCAATGTCAGCCGTGAAATTTTCAGCAAAGGTAACCCGTCTTTCGAGCGAGTCGTTCAATTCATTGAGGAGAATCTCAAACGGAATATCAGCCTTGAGCGGTTAGCGGAGCTGGCGATGATGAGTCCACGCTCGCTCTACAATTTGTTCGAGAAGCATGCCGGCACCACGCCGAAGAACTACATCCGCAACCGCAAGCTCGAAAGCATCCGCGCCTGCTTGAACGATCCCAGTGCCAATGTGCGTAGTATAACTGAGATAGCCCTAGACTACGGCTTCTTACATTTGGGACGCTTCGCTGAAAACTATAGGAGCGCGTTCGGCGAGTTGCCTTCCGACACCCTGCGTCAATGCAAAAAGGAAGTGGCTTGA'
p417
sg16
I1
sg17
g362
sg18
I-100
sg19
(lp418
(lp419
F0.89004801417600543
aF153.49993059118336
aa(lp420
F1440.7211052239061
aF274.00135678524509
aF29.736819251298687
aa(lp421
F325.49717031248355
aF110.52544406171874
aF69.006117794646741
aasg24
I10
sg25
F1440.7211052239061
sg26
F2403.8779920346578
sg27
S'His-UTR'
p422
sg29
(lp423
(lp424
I3
aI81
aa(lp425
I10
aI73
aI88
aa(lp426
I128
aI143
aI155
aasg34
F1744.4592812604496
sbag2
(g3
g4
NtRp427
(dp428
g7
g8
(g10
S'\x00\x00\x00\x00\x00\x00Y\xc0'
tRp429
sg12
S'His-UTR_syn'
p430
sg14
S'ACCGTGAACCATGGGCCATCATCATCATCATCATCATCATCATCACAGCAGCGGCCATATCGAAGGTCGTCCCATGGACTTTTGCCTGCTGAACGAGAAGAGCCAGATTTTCGTTCACGCGGAGCCGTACGCAGTTTCGGATTATGTAAACCAGTATGTCGGAACGCACTCTATTCGTCTGCCGAAGGGCGGTCCGCCGGCAGGACGTCTGCATCATCGTATCTTCGGGTGCCTGGACCTGTGTCGCATCAGCTACGGCGGTTCTGTGCGCGTTATCTCACCAGGTCTGGAAACCTGCTATCACCTGCAAATTATCCTGAAAGGTCACTGTCTGTGGCGCGGTCATGCCCAAGAACACTACTTTGCACCGGGCGAGCTGCTGCTGCTGAACCCAGATGATCAGGCGGATCTGACGTATTCGGAGGACTGTGAAAAGTTCATCGTGAAACTGCCTAGTGTGGTTCTGGATCGTGCTTGTAGCGACAATAACTGGCACAAGCCGCGCGAAGGTATCCGCTTTGCGGCACGTCATAACCTGCAACAGCTGGATGGCTTTATCAATCTGCTGGGTCTGGTGTGCGATGAAGCCGAACACACCAAAAGCATGCCGCGTGTTCAGGAACACTATGCCGGCATCATCGCGTCAAAACTGCTGGAGATGCTGGGGAGCAACGTATCCCGTGAGATTTTCTCAAAAGGTAATCCGTCCTTCGAGCGCGTTGTTCAGTTTATTGAAGAGAATCTGAAGCGCAACATTTCTCTGGAACGTCTGGCTGAACTGGCAATGATGTCTCCTCGCTCTCTGTATAACCTGTTTGAAAAACACGCGGGCACCACCCCGAAAAATTACATCCGTAACCGTAAACTGGAGAGTATTCGTGCATGCCTGAACGATCCCTTCAGCAAATGTTCGTAGCATTACTGAAATCGCCCTGGATTATGGTTTTCTGCATCTGGGCCGTTTTGCTGAGAATTACCGTTCGGCCTTCGGCGAACTGCCGAGCGACACGCTGCGCCAGTGCAAAAAGGAAGTTGCCTGA'
p431
sg16
I1
sg17
g377
sg18
I-100
sg19
(lp432
(lp433
F0.89004801417600543
aF4.7987409441248046
aa(lp434
F1440.7211052239061
aF39.564788317279579
aa(lp435
F11.20111521571366
aF176.28269953073243
aasg24
I10
sg25
F1440.7211052239061
sg26
F1673.4584972459327
sg27
g422
sg29
(lp436
(lp437
I3
aI81
aa(lp438
I10
aI73
aa(lp439
I143
aI155
aasg34
F1480.2858935411857
sbag2
(g3
g4
NtRp440
(dp441
g7
g8
(g10
S'\x00\x00\x00\x00\x00\x00Y\xc0'
tRp442
sg12
S'H39-UTR_wt'
p443
sg14
S'ACATGTACCATAATAATGGAGTCTTGAACATATGGATTTTTGCTTATTGAACGAGAAAAGTCAGATCTTCGTCCACGCCGAGCCCTATGCAGTCTCCGATTATGTTAACCAGTATGTCGGTACGCACTCTATTCGCCTGCCCAAGGGCGGGCGCCCGGCAGGCAGGCTGCACCACAGAATCTTCGGATGCCTCGACCTGTGTCGAATCAGCTACGGCGGTAGCGTGAGGGTAATCTCGCCTGGATTAGAGACCTGTTATCATCTGCAAATAATACTCAAAGGCCATTGCCTGTGGCGTGGCCATGCCCAGGAGCACTATTTTGCGCCGGGCGAACTATTGCTGCTCAATCCGGATGACCAAGCCGACCTGACCTATTCAGAAGATTGCGAGAAATTTATCGTTAAATTGCCCTCAGTGGTCCTTGATCGGGCATGCAGTGACAACAATTGGCACAAGCCGAGGGAGGGTATCCGTTTCGCCGCGCGACACAATCTCCAGCAACTCGATGGCTTTATCAATCTACTCGGGTTAGTTTGTGACGAAGCGGAACATACAAAGTCGATGCCTCGGGTCCAAGAGCACTATGCGGGGATCATCGCTTCCAAGCTGCTCGAAATGCTGGGCAGCAATGTCAGCCGTGAAATTTTCAGCAAAGGTAACCCGTCTTTCGAGCGAGTCGTTCAATTCATTGAGGAGAATCTCAAACGGAATATCAGCCTTGAGCGGTTAGCGGAGCTGGCGATGATGAGTCCACGCTCGCTCTACAATTTGTTCGAGAAGCATGCCGGCACCACGCCGAAGAACTACATCCGCAACCGCAAGCTCGAAAGCATCCGCGCCTGCTTGAACGATCCCAGTGCCAATGTGCGTAGTATAACTGAGATAGCCCTAGACTACGGCTTCTTACATTTGGGACGCTTCGCTGAAAACTATAGGAGCGCGTTCGGCGAGTTGCCTTCCGACACCCTGCGTCAATGCAAAAAGGAAGTGGCTTGA'
p444
sg16
I2
sg17
g362
sg18
I-100
sg19
(lp445
(lp446
F559.92594017363319
aF22.946377039610503
aa(lp447
F1074.348480103527
aF131.30652800201707
aa(lp448
F1.0748476875315727
aF20.673420929692483
aF325.49717031248355
aF44.932247696110828
aF1.4387981192222954
aasg24
I2
sg25
F1.0748476875315727
sg26
F2182.1438100638288
sg27
S'H39-UTR'
p449
sg29
(lp450
(lp451
I15
aI39
aa(lp452
I31
aI46
aa(lp453
I2
aI23
aI86
aI101
aI113
aasg34
F393.61648474504068
sbag2
(g3
g4
NtRp454
(dp455
g7
g8
(g10
S'\x00\x00\x00\x00\x00\x00Y\xc0'
tRp456
sg12
S'H39-UTR_syn'
p457
sg14
S'ACATGTACCATAATAATGGAGTCTTGAACATATGGACTTTTGCCTGCTGAACGAGAAGAGCCAGATTTTCGTTCACGCGGAGCCGTACGCAGTTTCGGATTATGTAAACCAGTATGTCGGAACGCACTCTATTCGTCTGCCGAAGGGCGGTCCGCCGGCAGGACGTCTGCATCATCGTATCTTCGGGTGCCTGGACCTGTGTCGCATCAGCTACGGCGGTTCTGTGCGCGTTATCTCACCAGGTCTGGAAACCTGCTATCACCTGCAAATTATCCTGAAAGGTCACTGTCTGTGGCGCGGTCATGCCCAAGAACACTACTTTGCACCGGGCGAGCTGCTGCTGCTGAACCCAGATGATCAGGCGGATCTGACGTATTCGGAGGACTGTGAAAAGTTCATCGTGAAACTGCCTAGTGTGGTTCTGGATCGTGCTTGTAGCGACAATAACTGGCACAAGCCGCGCGAAGGTATCCGCTTTGCGGCACGTCATAACCTGCAACAGCTGGATGGCTTTATCAATCTGCTGGGTCTGGTGTGCGATGAAGCCGAACACACCAAAAGCATGCCGCGTGTTCAGGAACACTATGCCGGCATCATCGCGTCAAAACTGCTGGAGATGCTGGGGAGCAACGTATCCCGTGAGATTTTCTCAAAAGGTAATCCGTCCTTCGAGCGCGTTGTTCAGTTTATTGAAGAGAATCTGAAGCGCAACATTTCTCTGGAACGTCTGGCTGAACTGGCAATGATGTCTCCTCGCTCTCTGTATAACCTGTTTGAAAAACACGCGGGCACCACCCCGAAAAATTACATCCGTAACCGTAAACTGGAGAGTATTCGTGCATGCCTGAACGATCCCTTCAGCAAATGTTCGTAGCATTACTGAAATCGCCCTGGATTATGGTTTTCTGCATCTGGGCCGTTTTGCTGAGAATTACCGTTCGGCCTTCGGCGAACTGCCGAGCGACACGCTGCGCCAGTGCAAAAAGGAAGTTGCCTGA'
p458
sg16
I2
sg17
g377
sg18
I-100
sg19
(lp459
(lp460
F208.03482953953906
aF3.0281671654141595
aa(lp461
F1407.3963196228015
aa(lp462
F1.0748476875315727
aF9.1959930768873601
aF8.9440709039538433
aF10.34812584341117
aasg24
I2
sg25
F1.0748476875315727
sg26
F1648.0223538395385
sg27
g449
sg29
(lp463
(lp464
I15
aI39
aa(lp465
I31
aa(lp466
I2
aI23
aI101
aI113
aasg34
F29.563037511783946
sba.