(lp1
ccopy_reg
_reconstructor
p2
(cDNAClasses
TNobject
p3
c__builtin__
object
p4
NtRp5
(dp6
S'induced_mean'
p7
cnumpy.core.multiarray
scalar
p8
(cnumpy
dtype
p9
(S'f8'
I0
I1
tRp10
(I3
S'<'
NNNI-1
I-1
I0
tbS'\x00\x00\x00\x00\x00\x00T@'
tRp11
sS'name'
p12
S'syn'
p13
sS'sequence'
p14
S'ACCGTGAACCATGGACTTTTGCCTGCTGAACGAGAAGAGCCAGATTTTCGTTCACGCGGAGCCGTACGCAGTTTCGGATTATGTAAACCAGTATGTCGGAACGCACTCTA'
p15
sS'frame'
p16
I1
sS'utr'
p17
S''
sS'induced_list'
p18
I80
sS'RBSrates'
p19
(lp20
(lp21
F0.7776386129098446
aF31.77064019798415
aa(lp22
F511.72917212311472
aa(lp23
F11.20111521571366
aF176.28269953073243
aasS'TNstart'
p24
I10
sS'TNstartRate'
p25
F511.72917212311472
sS'frames_sum'
p26
F731.76126568045481
sS'gene'
p27
g13
sS'RBSstarts'
p28
(lp29
(lp30
I3
aI18
aa(lp31
I10
aa(lp32
I80
aI92
aasS'TNstartFrameRate'
p33
F511.72917212311472
sbag2
(g3
g4
NtRp34
(dp35
g7
g8
(g10
S'\x00\x00\x00\x00\x00P\x84@'
tRp36
sg12
S'wt'
p37
sg14
S'ACCGTGAACCATGGATTTTTGCTTATTGAACGAGAAAAGTCAGATCTTCGTCCACGCCGAGCCCTATGCAGTCTCCGATTATGTTAACCAGTATGTCGGTACGCACTCTATTCGCCTGCCCAAGGGCGGGCGCCCGGCAGGCAGGCTGCACCAC'
p38
sg16
I1
sg17
S''
sg18
I650
sg19
(lp39
(lp40
F0.67942605641133935
aF541.2201498773087
aa(lp41
F670.3651253085909
aF196.87617982841618
aa(lp42
F325.49717031248355
aF44.932247696110828
aF1.4387981192222954
aasg24
I10
sg25
F670.3651253085909
sg26
F1781.0090971985437
sg27
g37
sg28
(lp43
(lp44
I3
aI18
aa(lp45
I10
aI25
aa(lp46
I65
aI80
aI92
aasg33
F867.24130513700709
sbag2
(g3
g4
NtRp47
(dp48
g7
g8
(g10
S'\x00\x00\x00\x00\x00\x00T@'
tRp49
sg12
S'syn[1-42]'
p50
sg14
S'ACCGTGAACCATGGACTTTTGCCTGCTGAACGAGAAGAGCCAGATTTTCGTTCACGCCGAGCCCTATGCAGTCTCCGATTATGTTAACCAGTATGTCGGTACGCACTCTATTCGCCTGCCCAAGGGCGGGCGCCCGGCAGGCAGGCTGCACCAC'
p51
sg16
I1
sg17
S''
sg18
I80
sg19
(lp52
(lp53
F0.7776386129098446
aF31.77064019798415
aa(lp54
F511.72917212311472
aa(lp55
F611.19543844973077
aF84.370579334966123
aF1.4387981192222954
aasg24
I10
sg25
F511.72917212311472
sg26
F1241.2822668379279
sg27
g50
sg28
(lp56
(lp57
I3
aI18
aa(lp58
I10
aa(lp59
I65
aI80
aI92
aasg33
F511.72917212311472
sbag2
(g3
g4
NtRp60
(dp61
g7
g8
(g10
S'\x00\x00\x00\x00\x00\xc0g@'
tRp62
sg12
S'syn[1-6]'
p63
sg14
S'ACCGTGAACCATGGACTTTTGCTTATTGAACGAGAAAAGTCAGATCTTCGTCCACGCCGAGCCCTATGCAGTCTCCGATTATGTTAACCAGTATGTCGGTACGCACTCTATTCGCCTGCCCAAGGGCGGGCGCCCGGCAGGCAGGCTGCACCAC'
p64
sg16
I1
sg17
S''
sg18
I190
sg19
(lp65
(lp66
F0.9738764140991284
aF192.23577570207155
aa(lp67
F238.10672957488171
aF150.28718038991011
aa(lp68
F325.49717031248355
aF44.932247696110828
aF1.4387981192222954
aasg24
I10
sg25
F238.10672957488171
sg26
F953.47177820877914
sg27
g63
sg28
(lp69
(lp70
I3
aI18
aa(lp71
I10
aI25
aa(lp72
I65
aI80
aI92
aasg33
F388.39390996479182
sbag2
(g3
g4
NtRp73
(dp74
g7
g8
(g10
S'\x00\x00\x00\x00\x00\x00t@'
tRp75
sg12
S'syn[1-13]'
p76
sg14
S'ACCGTGAACCATGGACTTTTGCCTATTGAACGAGAAAAGTCAGATCTTCGTCCACGCCGAGCCCTATGCAGTCTCCGATTATGTTAACCAGTATGTCGGTACGCACTCTATTCGCCTGCCCAAGGGCGGGCGCCCGGCAGGCAGGCTGCACCAC'
p77
sg16
I1
sg17
S''
sg18
I320
sg19
(lp78
(lp79
F0.9738764140991284
aF432.16334283931923
aa(lp80
F535.28537978849192
aF337.85912131078663
aa(lp81
F325.49717031248355
aF44.932247696110828
aF1.4387981192222954
aasg24
I10
sg25
F535.28537978849192
sg26
F1678.1499364805136
sg27
g76
sg28
(lp82
(lp83
I3
aI18
aa(lp84
I10
aI25
aa(lp85
I65
aI80
aI92
aasg33
F873.14450109927861
sbag2
(g3
g4
NtRp86
(dp87
g7
g8
(g10
S'\x00\x00\x00\x00\x00\xc0b@'
tRp88
sg12
S'syn[1-15]'
p89
sg14
S'ACCGTGAACCATGGACTTTTGCCTGTTGAACGAGAAAAGTCAGATCTTCGTCCACGCCGAGCCCTATGCAGTCTCCGATTATGTTAACCAGTATGTCGGTACGCACTCTATTCGCCTGCCCAAGGGCGGGCGCCCGGCAGGCAGGCTGCACCAC'
p90
sg16
I1
sg17
S''
sg18
I150
sg19
(lp91
(lp92
F0.9738764140991284
aF329.89572593192395
aa(lp93
F408.61484869559297
aF257.90776088333024
aa(lp94
F325.49717031248355
aF44.932247696110828
aF1.4387981192222954
aasg24
I10
sg25
F408.61484869559297
sg26
F1369.260428052763
sg27
g89
sg28
(lp95
(lp96
I3
aI18
aa(lp97
I10
aI25
aa(lp98
I65
aI80
aI92
aasg33
F666.52260957892327
sbag2
(g3
g4
NtRp99
(dp100
g7
g8
(g10
S'\x00\x00\x00\x00\x00\xc0b@'
tRp101
sg12
S'syn[1-16]'
p102
sg14
S'ACCGTGAACCATGGACTTTTGCCTGCTGAACGAGAAAAGTCAGATCTTCGTCCACGCCGAGCCCTATGCAGTCTCCGATTATGTTAACCAGTATGTCGGTACGCACTCTATTCGCCTGCCCAAGGGCGGGCGCCCGGCAGGCAGGCTGCACCAC'
p103
sg16
I1
sg17
S''
sg18
I150
sg19
(lp104
(lp105
F0.9738764140991284
aF432.16334283931923
aa(lp106
F489.20959826192177
aa(lp107
F325.49717031248355
aF44.932247696110828
aF1.4387981192222954
aasg24
I10
sg25
F489.20959826192177
sg26
F1294.2150336431569
sg27
g102
sg28
(lp108
(lp109
I3
aI18
aa(lp110
I10
aa(lp111
I65
aI80
aI92
aasg33
F489.20959826192177
sbag2
(g3
g4
NtRp112
(dp113
g7
g8
(g10
S'\x00\x00\x00\x00\x00\x00t@'
tRp114
sg12
S'syn[1-30]'
p115
sg14
S'ACCGTGAACCATGGACTTTTGCCTGCTGAACGAGAAGAGCCAGATCTTCGTCCACGCCGAGCCCTATGCAGTCTCCGATTATGTTAACCAGTATGTCGGTACGCACTCTATTCGCCTGCCCAAGGGCGGGCGCCCGGCAGGCAGGCTGCACCAC'
p116
sg16
I1
sg17
S''
sg18
I320
sg19
(lp117
(lp118
F0.7776386129098446
aF134.11352107469642
aa(lp119
F511.72917212311472
aa(lp120
F446.02957942639324
aF44.932247696110828
aF1.4387981192222954
aasg24
I10
sg25
F511.72917212311472
sg26
F1139.0209570524473
sg27
g115
sg28
(lp121
(lp122
I3
aI18
aa(lp123
I10
aa(lp124
I65
aI80
aI92
aasg33
F511.72917212311472
sbag2
(g3
g4
NtRp125
(dp126
g7
g8
(g10
S'\x00\x00\x00\x00\x00\x80a@'
tRp127
sg12
S'syn[1-36]'
p128
sg14
S'ACCGTGAACCATGGACTTTTGCCTGCTGAACGAGAAGAGCCAGATTTTCGTCCACGCCGAGCCCTATGCAGTCTCCGATTATGTTAACCAGTATGTCGGTACGCACTCTATTCGCCTGCCCAAGGGCGGGCGCCCGGCAGGCAGGCTGCACCAC'
p129
sg16
I1
sg17
S''
sg18
I140
sg19
(lp130
(lp131
F0.7776386129098446
aF146.74488668720898
aa(lp132
F511.72917212311472
aa(lp133
F611.19543844973077
aF44.932247696110828
aF1.4387981192222954
aasg24
I10
sg25
F511.72917212311472
sg26
F1316.8181816882975
sg27
g128
sg28
(lp134
(lp135
I3
aI18
aa(lp136
I10
aa(lp137
I65
aI80
aI92
aasg33
F511.72917212311472
sbag2
(g3
g4
NtRp138
(dp139
g7
g8
(g10
S'\x00\x00\x00\x00\x00\x00d@'
tRp140
sg12
S'syn6'
p141
sg14
S'ACCGTGAACCATGGACTTTTGCTTATTGAACGAGAAAAGTCAGATCTTCGTCCACGCCGAGCCCTATGCAGTCTCCGATTATGTTAACCAGTATGTCGGTACGCACTCTATTCGCCTGCCCAAGGGCGGGCGCCCGGCAGGCAGGCTGCACCAC'
p142
sg16
I1
sg17
S''
sg18
I160
sg19
(lp143
(lp144
F0.9738764140991284
aF192.23577570207155
aa(lp145
F238.10672957488171
aF150.28718038991011
aa(lp146
F325.49717031248355
aF44.932247696110828
aF1.4387981192222954
aasg24
I10
sg25
F238.10672957488171
sg26
F953.47177820877914
sg27
g141
sg28
(lp147
(lp148
I3
aI18
aa(lp149
I10
aI25
aa(lp150
I65
aI80
aI92
aasg33
F388.39390996479182
sbag2
(g3
g4
NtRp151
(dp152
g7
g8
(g10
S'\x00\x00\x00\x00\x00\xc0\x82@'
tRp153
sg12
S'syn13'
p154
sg14
S'ACCGTGAACCATGGATTTTTGCCTATTGAACGAGAAAAGTCAGATCTTCGTCCACGCCGAGCCCTATGCAGTCTCCGATTATGTTAACCAGTATGTCGGTACGCACTCTATTCGCCTGCCCAAGGGCGGGCGCCCGGCAGGCAGGCTGCACCAC'
p155
sg16
I1
sg17
S''
sg18
I600
sg19
(lp156
(lp157
F0.67942605641133935
aF775.77469075104136
aa(lp158
F1099.7872511597973
aF831.07414669595971
aa(lp159
F325.49717031248355
aF44.932247696110828
aF1.4387981192222954
aasg24
I10
sg25
F1099.7872511597973
sg26
F3079.1837307910264
sg27
g154
sg28
(lp160
(lp161
I3
aI18
aa(lp162
I10
aI25
aa(lp163
I65
aI80
aI92
aasg33
F1930.8613978557569
sbag2
(g3
g4
NtRp164
(dp165
g7
g8
(g10
S'\x00\x00\x00\x00\x00\x00y@'
tRp166
sg12
S'syn15'
p167
sg14
S'ACCGTGAACCATGGATTTTTGCTTGTTGAACGAGAAAAGTCAGATCTTCGTCCACGCCGAGCCCTATGCAGTCTCCGATTATGTTAACCAGTATGTCGGTACGCACTCTATTCGCCTGCCCAAGGGCGGGCGCCCGGCAGGCAGGCTGCACCAC'
p168
sg16
I1
sg17
S''
sg18
I400
sg19
(lp169
(lp170
F0.33068835291626647
aF122.56942603657222
aa(lp171
F151.81672127808858
aF135.30628507445326
aF100.23400432398908
aa(lp172
F325.49717031248355
aF44.932247696110828
aF1.4387981192222954
aasg24
I10
sg25
F151.81672127808858
sg26
F882.12534119383599
sg27
g167
sg28
(lp173
(lp174
I3
aI18
aa(lp175
I10
aI22
aI25
aa(lp176
I65
aI80
aI92
aasg33
F387.35701067653093
sbag2
(g3
g4
NtRp177
(dp178
g7
g8
(g10
S'\x00\x00\x00\x00\x00\xc0\x82@'
tRp179
sg12
S'syn16'
p180
sg14
S'ACCGTGAACCATGGATTTTTGCTTACTGAACGAGAAAAGTCAGATCTTCGTCCACGCCGAGCCCTATGCAGTCTCCGATTATGTTAACCAGTATGTCGGTACGCACTCTATTCGCCTGCCCAAGGGCGGGCGCCCGGCAGGCAGGCTGCACCAC'
p181
sg16
I1
sg17
S''
sg18
I600
sg19
(lp182
(lp183
F0.67942605641133935
aF413.14520815140935
aa(lp184
F427.42443930598381
aa(lp185
F325.49717031248355
aF44.932247696110828
aF1.4387981192222954
aasg24
I10
sg25
F427.42443930598381
sg26
F1213.117289641621
sg27
g180
sg28
(lp186
(lp187
I3
aI18
aa(lp188
I10
aa(lp189
I65
aI80
aI92
aasg33
F427.42443930598381
sbag2
(g3
g4
NtRp190
(dp191
g7
g8
(g10
S'\x00\x00\x00\x00\x00\xc0\x82@'
tRp192
sg12
S'syn27'
p193
sg14
S'ACCGTGAACCATGGATTTTTGCTTATTGAACGAGAAGAGTCAGATCTTCGTCCACGCCGAGCCCTATGCAGTCTCCGATTATGTTAACCAGTATGTCGGTACGCACTCTATTCGCCTGCCCAAGGGCGGGCGCCCGGCAGGCAGGCTGCACCAC'
p194
sg16
I1
sg17
S''
sg18
I600
sg19
(lp195
(lp196
F0.67942605641133935
aF134.11352107469642
aa(lp197
F559.92594017363308
aF164.44184807118953
aa(lp198
F446.02957942639324
aF44.932247696110828
aF1.4387981192222954
aasg24
I10
sg25
F559.92594017363308
sg26
F1351.5613606176566
sg27
g193
sg28
(lp199
(lp200
I3
aI18
aa(lp201
I10
aI25
aa(lp202
I65
aI80
aI92
aasg33
F724.36778824482258
sbag2
(g3
g4
NtRp203
(dp204
g7
g8
(g10
S'\x00\x00\x00\x00\x00\x80q@'
tRp205
sg12
S'syn30'
p206
sg14
S'ACCGTGAACCATGGATTTTTGCTTATTGAACGAGAAAAGCCAGATCTTCGTCCACGCCGAGCCCTATGCAGTCTCCGATTATGTTAACCAGTATGTCGGTACGCACTCTATTCGCCTGCCCAAGGGCGGGCGCCCGGCAGGCAGGCTGCACCAC'
p207
sg16
I1
sg17
S''
sg18
I280
sg19
(lp208
(lp209
F0.67942605641133935
aF494.6335209031011
aa(lp210
F511.72917212311472
aF95.82302448007637
aa(lp211
F165.71778670727042
aF44.932247696110828
aF1.4387981192222954
aasg24
I10
sg25
F511.72917212311472
sg26
F1314.953976085307
sg27
g206
sg28
(lp212
(lp213
I3
aI18
aa(lp214
I10
aI25
aa(lp215
I65
aI80
aI92
aasg33
F607.55219660319108
sbag2
(g3
g4
NtRp216
(dp217
g7
g8
(g10
S'\x00\x00\x00\x00\x00\xc0\x82@'
tRp218
sg12
S'syn36'
p219
sg14
S'ACCGTGAACCATGGATTTTTGCTTATTGAACGAGAAAAGTCAGATTTTCGTCCACGCCGAGCCCTATGCAGTCTCCGATTATGTTAACCAGTATGTCGGTACGCACTCTATTCGCCTGCCCAAGGGCGGGCGCCCGGCAGGCAGGCTGCACCAC'
p220
sg16
I1
sg17
S''
sg18
I600
sg19
(lp221
(lp222
F0.67942605641133935
aF210.34133543415413
aa(lp223
F670.3651253085909
aF246.5580603249465
aa(lp224
F611.19543844973077
aF44.932247696110828
aF1.4387981192222954
aasg24
I10
sg25
F670.3651253085909
sg26
F1785.5104313891666
sg27
g219
sg28
(lp225
(lp226
I3
aI18
aa(lp227
I10
aI25
aa(lp228
I65
aI80
aI92
aasg33
F916.9231856335374
sbag2
(g3
g4
NtRp229
(dp230
g7
g8
(g10
S'\x00\x00\x00\x00\x00\xc0r@'
tRp231
sg12
S'syn42'
p232
sg14
S'ACCGTGAACCATGGATTTTTGCTTATTGAACGAGAAAAGTCAGATCTTCGTTCACGCCGAGCCCTATGCAGTCTCCGATTATGTTAACCAGTATGTCGGTACGCACTCTATTCGCCTGCCCAAGGGCGGGCGCCCGGCAGGCAGGCTGCACCAC'
p233
sg16
I1
sg17
S''
sg18
I300
sg19
(lp234
(lp235
F0.67942605641133935
aF167.95718836247593
aa(lp236
F670.3651253085909
aF27.177161844516295
aa(lp237
F22.634797106565351
aF84.370579334966123
aF1.4387981192222954
aasg24
I10
sg25
F670.3651253085909
sg26
F974.62307613274811
sg27
g232
sg28
(lp238
(lp239
I3
aI18
aa(lp240
I10
aI25
aa(lp241
I65
aI80
aI92
aasg33
F697.54228715310717
sbag2
(g3
g4
NtRp242
(dp243
g7
g8
(g10
S'\x00\x00\x00\x00\x00\x80f@'
tRp244
sg12
S'syn6-30'
p245
sg14
S'ACCGTGAACCATGGACTTTTGCTTATTGAACGAGAAAAGCCAGATCTTCGTCCACGCCGAGCCCTATGCAGTCTCCGATTATGTTAACCAGTATGTCGGTACGCACTCTATTCGCCTGCCCAAGGGCGGGCGCCCGGCAGGCAGGCTGCACCAC'
p246
sg16
I1
sg17
S''
sg18
I180
sg19
(lp247
(lp248
F0.9738764140991284
aF240.74664605678791
aa(lp249
F467.68103924708942
aF205.93889586854945
aa(lp250
F165.71778670727042
aF44.932247696110828
aF1.4387981192222954
aasg24
I10
sg25
F467.68103924708942
sg26
F1127.4292901091294
sg27
g245
sg28
(lp251
(lp252
I3
aI18
aa(lp253
I10
aI25
aa(lp254
I65
aI80
aI92
aasg33
F673.6199351156389
sbag2
(g3
g4
NtRp255
(dp256
g7
g8
(g10
S'\x00\x00\x00\x00\x00\x00Y@'
tRp257
sg12
S'A-D7'
p258
sg14
S'ACCGTGAACCATGGATTTTTGCTTATTGAACGAGAAAAGCGAGATCTTCGTCCACGCCGAGCCCTATGCAGTCTCCGATTATGTTAACCAGTATGTCGGTACGCACTCTATTCGCCTGCCCAAGGGCGGGCGCCCGGCAGGCAGGCTGCACCAC'
p259
sg16
I1
sg17
S''
sg18
I100
sg19
(lp260
(lp261
F0.67942605641133935
aF89.446985540817465
aa(lp262
F92.538475306200752
aF40.748437141257526
aa(lp263
F3.2683814658178156
aF44.932247696110828
aF1.4387981192222954
aasg24
I10
sg25
F92.538475306200752
sg26
F273.05275132583802
sg27
g258
sg28
(lp264
(lp265
I3
aI18
aa(lp266
I10
aI25
aa(lp267
I65
aI80
aI92
aasg33
F133.28691244745829
sbag2
(g3
g4
NtRp268
(dp269
g7
g8
(g10
S'\x00\x00\x00\x00\x00\x00Y@'
tRp270
sg12
S'B-D5'
p271
sg14
S'ACCGTGAACCATGGATTTTTGCTTATCGAATGAGAAAAGTAAGATCTTCGTCCACGCCGAGCCCTATGCAGTCTCCGATTATGTTAACCAGTATGTCGGTACGCACTCTATTCGCCTGCCCAAGGGCGGGCGCCCGGCAGGCAGGCTGCACCAC'
p272
sg16
I1
sg17
S''
sg18
I100
sg19
(lp273
(lp274
F0.7434172099984504
aF62.402797484418635
aa(lp275
F64.559579052717893
aa(lp276
F34.567918378655889
aF151.4532900038335
aF44.932247696110828
aF1.4387981192222954
aasg24
I10
sg25
F64.559579052717893
sg26
F360.0980479449575
sg27
g271
sg28
(lp277
(lp278
I3
aI18
aa(lp279
I10
aa(lp280
I29
aI65
aI80
aI92
aasg33
F64.559579052717893
sbag2
(g3
g4
NtRp281
(dp282
g7
g8
(g10
S'\x00\x00\x00\x00\x00\x00Y@'
tRp283
sg12
S'B-B3'
p284
sg14
S'ACCGTGAACCATGGATTTTTGCTTGTTGAACGAAAAAAGCGAGATCTTCGTCCACGCCGAGCCCTATGCAGTCTCCGATTATGTTAACCAGTATGTCGGTACGCACTCTATTCGCCTGCCCAAGGGCGGGCGCCCGGCAGGCAGGCTGCACCAC'
p285
sg16
I1
sg17
S''
sg18
I100
sg19
(lp286
(lp287
F0.71070178222484381
aF81.747653708482687
aa(lp288
F84.573037182904471
aF50.271684041577586
aF37.240932251040611
aa(lp289
F8.4097303230248102
aF44.932247696110828
aF1.4387981192222954
aasg24
I10
sg25
F84.573037182904471
sg26
F309.32478510458816
sg27
g284
sg28
(lp290
(lp291
I3
aI18
aa(lp292
I10
aI22
aI25
aa(lp293
I65
aI80
aI92
aasg33
F172.08565347552266
sbag2
(g3
g4
NtRp294
(dp295
g7
g8
(g10
S'\x00\x00\x00\x00\x00\x00T@'
tRp296
sg12
S'wt36/42'
p297
sg14
S'ACCGTGAACCATGGACTTTTGCCTGCTGAACGAGAAGAGCCAGATCTTCGTCCACGCGGAGCCGTACGCAGTTTCGGATTATGTAAACCAGTATGTCGGAACGCACTCTATTCGTCTGCCGAAGGGCGGTCCGCCGGCAGGACGTCTGCATCAT'
p298
sg16
I1
sg17
S''
sg18
I80
sg19
(lp299
(lp300
F0.7776386129098446
aF134.11352107469642
aa(lp301
F511.72917212311472
aa(lp302
F4.1616612615431361
aF10.34812584341117
aasg24
I10
sg25
F511.72917212311472
sg26
F661.13011891567521
sg27
g297
sg28
(lp303
(lp304
I3
aI18
aa(lp305
I10
aa(lp306
I80
aI92
aasg33
F511.72917212311472
sbag2
(g3
g4
NtRp307
(dp308
g7
g8
(g10
S'\x00\x00\x00\x00\x00\xc0r@'
tRp309
sg12
S'wt[1-42]'
p310
sg14
S'ACCGTGAACCATGGATTTTTGCTTATTGAACGAGAAAAGTCAGATCTTCGTCCACGCGGAGCCGTACGCAGTTTCGGATTATGTAAACCAGTATGTCGGAACGCACTCTATTCGTCTGCCGAAGGGCGGTCCGCCGGCAGGACGTCTGCATCAT'
p311
sg16
I1
sg17
S''
sg18
I300
sg19
(lp312
(lp313
F0.67942605641133935
aF541.2201498773087
aa(lp314
F670.3651253085909
aF48.785614686573609
aa(lp315
F4.1616612615431361
aF10.34812584341117
aasg24
I10
sg25
F670.3651253085909
sg26
F1275.5601030338389
sg27
g310
sg28
(lp316
(lp317
I3
aI18
aa(lp318
I10
aI25
aa(lp319
I80
aI92
aasg33
F719.15073999516449
sbag2
(g3
g4
NtRp320
(dp321
g7
g8
(g10
S'\x00\x00\x00\x00\x00\x00y@'
tRp322
sg12
S'wt[1-50]'
p323
sg14
S'ACCGTGAACCATGGATTTTTGCTTATTGAACGAGAAAAGTCAGATCTTCGTCCACGCCGAGCCGTACGCAGTTTCGGATTATGTAAACCAGTATGTCGGAACGCACTCTATTCGTCTGCCGAAGGGCGGTCCGCCGGCAGGACGTCTGCATCAT'
p324
sg16
I1
sg17
S''
sg18
I400
sg19
(lp325
(lp326
F0.67942605641133935
aF541.2201498773087
aa(lp327
F670.3651253085909
aF196.87617982841618
aa(lp328
F2.3183502426615679
aF6.0300265877991395
aasg24
I10
sg25
F670.3651253085909
sg26
F1417.4892579011878
sg27
g323
sg28
(lp329
(lp330
I3
aI18
aa(lp331
I10
aI25
aa(lp332
I80
aI92
aasg33
F867.24130513700709
sbag2
(g3
g4
NtRp333
(dp334
g7
g8
(g10
S'\x00\x00\x00\x00\x00\xc0r@'
tRp335
sg12
S'wt[1-115]'
p336
sg14
S'ACCGTGAACCATGGATTTTTGCTTATTGAACGAGAAAAGTCAGATCTTCGTCCACGCCGAGCCCTATGCAGTCTCCGATTATGTTAACCAGTATGTCGGTACGCACTCTATTCGCCTGCCCAAGGGCGGTCCGCCGGCAGGACGTCTGCATCAT'
p337
sg16
I1
sg17
S''
sg18
I300
sg19
(lp338
(lp339
F0.67942605641133935
aF541.2201498773087
aa(lp340
F670.3651253085909
aF196.87617982841618
aa(lp341
F325.49717031248355
aF44.932247696110828
aF1.4387981192222954
aasg24
I10
sg25
F670.3651253085909
sg26
F1781.0090971985437
sg27
g336
sg28
(lp342
(lp343
I3
aI18
aa(lp344
I10
aI25
aa(lp345
I65
aI80
aI92
aasg33
F867.24130513700709
sbag2
(g3
g4
NtRp346
(dp347
g7
g8
(g10
S'\x00\x00\x00\x00\x00\x80v@'
tRp348
sg12
S'His-UTR_syn'
p349
sg14
S'ACCGTGAACCATGGGCCATCATCATCATCATCATCATCATCATCACAGCAGCGGCCATATCGAAGGTCGTCCCATGGACTTTTGCCTGCTGAACGAGAAGAGCCAGATTTTCGTTCACGCGGAGCCGTACGCAGTTTCGGATTATGTAAACCAGTATGTCGGAACGCACTCTATTCGTCTGCCGAAGGGCGGTCCGCCGGCAGGACGTCTGCATCATCGTATCTTCGGGTGCCTGGACCTGTGTCGCATCAGCTACGGCGGTTCTGTGCGCGTTATCTCACCAGGTCTGGAAACCTGCTATCACCTGCAAATTATCCTGAAAGGTCACTGTCTGTGGCGCGGTCATGCCCAAGAACACTACTTTGCACCGGGCGAGCTGCTGCTGCTGAACCCAGATGATCAGGCGGATCTGACGTATTCGGAGGACTGTGAAAAGTTCATCGTGAAACTGCCTAGTGTGGTTCTGGATCGTGCTTGTAGCGACAATAACTGGCACAAGCCGCGCGAAGGTATCCGCTTTGCGGCACGTCATAACCTGCAACAGCTGGATGGCTTTATCAATCTGCTGGGTCTGGTGTGCGATGAAGCCGAACACACCAAAAGCATGCCGCGTGTTCAGGAACACTATGCCGGCATCATCGCGTCAAAACTGCTGGAGATGCTGGGGAGCAACGTATCCCGTGAGATTTTCTCAAAAGGTAATCCGTCCTTCGAGCGCGTTGTTCAGTTTATTGAAGAGAATCTGAAGCGCAACATTTCTCTGGAACGTCTGGCTGAACTGGCAATGATGTCTCCTCGCTCTCTGTATAACCTGTTTGAAAAACACGCGGGCACCACCCCGAAAAATTACATCCGTAACCGTAAACTGGAGAGTATTCGTGCATGCCTGAACGATCCCTTCAGCAAATGTTCGTAGCATTACTGAAATCGCCCTGGATTATGGTTTTCTGCATCTGGGCCGTTTTGCTGAGAATTACCGTTCGGCCTTCGGCGAACTGCCGAGCGACACGCTGCGCCAGTGCAAAAAGGAAGTTGCCTGA'
p350
sg16
I1
sg17
S''
sg18
I360
sg19
(lp351
(lp352
F0.89004801417600543
aF4.7987409441248046
aa(lp353
F1440.7211052239061
aF39.564788317279579
aa(lp354
F11.20111521571366
aF176.28269953073243
aasg24
I10
sg25
F1440.7211052239061
sg26
F1673.4584972459327
sg27
g349
sg28
(lp355
(lp356
I3
aI81
aa(lp357
I10
aI73
aa(lp358
I143
aI155
aasg33
F1480.2858935411857
sbag2
(g3
g4
NtRp359
(dp360
g7
g8
(g10
S'\x00\x00\x00\x00\x00\x00y@'
tRp361
sg12
S'His-UTR_wt'
p362
sg14
S'ACCGTGAACCATGGGCCATCATCATCATCATCATCATCATCATCACAGCAGCGGCCATATCGAAGGTCGTCCCATGGATTTTTGCTTATTGAACGAGAAAAGTCAGATCTTCGTCCACGCCGAGCCCTATGCAGTCTCCGATTATGTTAACCAGTATGTCGGTACGCACTCTATTCGCCTGCCCAAGGGCGGGCGCCCGGCAGGCAGGCTGCACCACAGAATCTTCGGATGCCTCGACCTGTGTCGAATCAGCTACGGCGGTAGCGTGAGGGTAATCTCGCCTGGATTAGAGACCTGTTATCATCTGCAAATAATACTCAAAGGCCATTGCCTGTGGCGTGGCCATGCCCAGGAGCACTATTTTGCGCCGGGCGAACTATTGCTGCTCAATCCGGATGACCAAGCCGACCTGACCTATTCAGAAGATTGCGAGAAATTTATCGTTAAATTGCCCTCAGTGGTCCTTGATCGGGCATGCAGTGACAACAATTGGCACAAGCCGAGGGAGGGTATCCGTTTCGCCGCGCGACACAATCTCCAGCAACTCGATGGCTTTATCAATCTACTCGGGTTAGTTTGTGACGAAGCGGAACATACAAAGTCGATGCCTCGGGTCCAAGAGCACTATGCGGGGATCATCGCTTCCAAGCTGCTCGAAATGCTGGGCAGCAATGTCAGCCGTGAAATTTTCAGCAAAGGTAACCCGTCTTTCGAGCGAGTCGTTCAATTCATTGAGGAGAATCTCAAACGGAATATCAGCCTTGAGCGGTTAGCGGAGCTGGCGATGATGAGTCCACGCTCGCTCTACAATTTGTTCGAGAAGCATGCCGGCACCACGCCGAAGAACTACATCCGCAACCGCAAGCTCGAAAGCATCCGCGCCTGCTTGAACGATCCCAGTGCCAATGTGCGTAGTATAACTGAGATAGCCCTAGACTACGGCTTCTTACATTTGGGACGCTTCGCTGAAAACTATAGGAGCGCGTTCGGCGAGTTGCCTTCCGACACCCTGCGTCAATGCAAAAAGGAAGTGGCTTGA'
p363
sg16
I1
sg17
S''
sg18
I400
sg19
(lp364
(lp365
F0.89004801417600543
aF153.49993059118336
aa(lp366
F1440.7211052239061
aF274.00135678524509
aF29.736819251298687
aa(lp367
F325.49717031248355
aF110.52544406171874
aF69.006117794646741
aasg24
I10
sg25
F1440.7211052239061
sg26
F2403.8779920346578
sg27
g362
sg28
(lp368
(lp369
I3
aI81
aa(lp370
I10
aI73
aI88
aa(lp371
I128
aI143
aI155
aasg33
F1744.4592812604496
sbag2
(g3
g4
NtRp372
(dp373
g7
g8
(g10
S'\x00\x00\x00\x00\x00@\x9f@'
tRp374
sg12
S'T7-UTR_wt'
p375
sg14
S'AGGGGAATTGTGAGCGGATAACAATTCCCCTCTAGAAATAATTTTGTTTAACTTTAAGAAGGAGATATACCATGGGCCATCATCATCATCATCATCATCATCATCACAGCAGCGGCCATATCGAAGGTCGTCCCATGGATTTTTGCTTATTGAACGAGAAAAGTCAGATCTTCGTCCACGCCGAGCCCTATGCAGTCTCCGATTATGTTAACCAGTATGTCGGTACGCACTCTATTCGCCTGCCCAAGGGCGGGCGCCCGGCAGGCAGGCTGCACCACAGAATCTTCGGATGCCTCGACCTGTGTCGAATCAGCTACGGCGGTAGCGTGAGGGTAATCTCGCCTGGATTAGAGACCTGTTATCATCTGCAAATAATACTCAAAGGCCATTGCCTGTGGCGTGGCCATGCCCAGGAGCACTATTTTGCGCCGGGCGAACTATTGCTGCTCAATCCGGATGACCAAGCCGACCTGACCTATTCAGAAGATTGCGAGAAATTTATCGTTAAATTGCCCTCAGTGGTCCTTGATCGGGCATGCAGTGACAACAATTGGCACAAGCCGAGGGAGGGTATCCGTTTCGCCGCGCGACACAATCTCCAGCAACTCGATGGCTTTATCAATCTACTCGGGTTAGTTTGTGACGAAGCGGAACATACAAAGTCGATGCCTCGGGTCCAAGAGCACTATGCGGGGATCATCGCTTCCAAGCTGCTCGAAATGCTGGGCAGCAATGTCAGCCGTGAAATTTTCAGCAAAGGTAACCCGTCTTTCGAGCGAGTCGTTCAATTCATTGAGGAGAATCTCAAACGGAATATCAGCCTTGAGCGGTTAGCGGAGCTGGCGATGATGAGTCCACGCTCGCTCTACAATTTGTTCGAGAAGCATGCCGGCACCACGCCGAAGAACTACATCCGCAACCGCAAGCTCGAAAGCATCCGCGCCTGCTTGAACGATCCCAGTGCCAATGTGCGTAGTATAACTGAGATAGCCCTAGACTACGGCTTCTTACATTTGGGACGCTTCGCTGAAAACTATAGGAGCGCGTTCGGCGAGTTGCCTTCCGACACCCTGCGTCAATGCAAAAAGGAAGTGGCTTGA'
p376
sg16
I2
sg17
S''
sg18
I2000
sg19
(lp377
(lp378
F30.803382558942999
aF325.49717031248355
aF110.52544406171874
aF69.006117794646741
aa(lp379
F0.31456338541707113
aF265.76394599709283
aF153.49993059118336
aa(lp380
F118579.63970559194
aF274.00135678524509
aF29.736819251298687
aasg24
I71
sg25
F118579.63970559194
sg26
F119838.78843632997
sg27
g375
sg28
(lp381
(lp382
I9
aI189
aI204
aI216
aa(lp383
I7
aI43
aI142
aa(lp384
I71
aI134
aI149
aasg33
F118883.37788162848
sbag2
(g3
g4
NtRp385
(dp386
g7
g8
(g10
S'\x00\x00\x00\x00\x00\x00T@'
tRp387
sg12
S'H39-UTR_syn'
p388
sg14
S'ACATGTACCATAATAATGGAGTCTTGAACCCATGGACTTTTGCCTGCTGAACGAGAAGAGCCAGATTTTCGTTCACGCGGAGCCGTACGCAGTTTCGGATTATGTAAACCAGTATGTCGGAACGCACTCTATTCGTCTGCCGAAGGGCGGTCCGCCGGCAGGACGTCTGCATCATCGTATCTTCGGGTGCCTGGACCTGTGTCGCATCAGCTACGGCGGTTCTGTGCGCGTTATCTCACCAGGTCTGGAAACCTGCTATCACCTGCAAATTATCCTGAAAGGTCACTGTCTGTGGCGCGGTCATGCCCAAGAACACTACTTTGCACCGGGCGAGCTGCTGCTGCTGAACCCAGATGATCAGGCGGATCTGACGTATTCGGAGGACTGTGAAAAGTTCATCGTGAAACTGCCTAGTGTGGTTCTGGATCGTGCTTGTAGCGACAATAACTGGCACAAGCCGCGCGAAGGTATCCGCTTTGCGGCACGTCATAACCTGCAACAGCTGGATGGCTTTATCAATCTGCTGGGTCTGGTGTGCGATGAAGCCGAACACACCAAAAGCATGCCGCGTGTTCAGGAACACTATGCCGGCATCATCGCGTCAAAACTGCTGGAGATGCTGGGGAGCAACGTATCCCGTGAGATTTTCTCAAAAGGTAATCCGTCCTTCGAGCGCGTTGTTCAGTTTATTGAAGAGAATCTGAAGCGCAACATTTCTCTGGAACGTCTGGCTGAACTGGCAATGATGTCTCCTCGCTCTCTGTATAACCTGTTTGAAAAACACGCGGGCACCACCCCGAAAAATTACATCCGTAACCGTAAACTGGAGAGTATTCGTGCATGCCTGAACGATCCCTTCAGCAAATGTTCGTAGCATTACTGAAATCGCCCTGGATTATGGTTTTCTGCATCTGGGCCGTTTTGCTGAGAATTACCGTTCGGCCTTCGGCGAACTGCCGAGCGACACGCTGCGCCAGTGCAAAAAGGAAGTTGCCTGA'
p389
sg16
I1
sg17
S''
sg18
I80
sg19
(lp390
(lp391
F173.76216799041646
aF14.132280685550134
aF128.45996592495848
aa(lp392
F1762.5540427343326
aa(lp393
F1.2302193254645635
aF13.18136194114029
aF8.9440709039538433
aF10.34812584341117
aasg24
I31
sg25
F1762.5540427343326
sg26
F2112.6122353492274
sg27
g388
sg28
(lp394
(lp395
I15
aI39
aI186
aa(lp396
I31
aa(lp397
I2
aI23
aI101
aI113
aasg33
F1762.5540427343326
sbag2
(g3
g4
NtRp398
(dp399
g7
g8
(g10
S'\x00\x00\x00\x00\x00@o@'
tRp400
sg12
S'T7-UTR_without_His_syn'
p401
sg14
S'AGGGGAATTGTGAGCGGATAACAATTCCCCTCTAGAAATAATTTTGTTTAACTTTAAGAAGGAGATATACCATGGACTTTTGCCTGCTGAACGAGAAGAGCCAGATTTTCGTTCACGCGGAGCCGTACGCAGTTTCGGATTATGTAAACCAGTATGTCGGAACGCACTCTATTCGTCTGCCGAAGGGCGGTCCGCCGGCAGGACGTCTGCATCATCGTATCTTCGGGTGCCTGGACCTGTGTCGCATCAGCTACGGCGGTTCTGTGCGCGTTATCTCACCAGGTCTGGAAACCTGCTATCACCTGCAAATTATCCTGAAAGGTCACTGTCTGTGGCGCGGTCATGCCCAAGAACACTACTTTGCACCGGGCGAGCTGCTGCTGCTGAACCCAGATGATCAGGCGGATCTGACGTATTCGGAGGACTGTGAAAAGTTCATCGTGAAACTGCCTAGTGTGGTTCTGGATCGTGCTTGTAGCGACAATAACTGGCACAAGCCGCGCGAAGGTATCCGCTTTGCGGCACGTCATAACCTGCAACAGCTGGATGGCTTTATCAATCTGCTGGGTCTGGTGTGCGATGAAGCCGAACACACCAAAAGCATGCCGCGTGTTCAGGAACACTATGCCGGCATCATCGCGTCAAAACTGCTGGAGATGCTGGGGAGCAACGTATCCCGTGAGATTTTCTCAAAAGGTAATCCGTCCTTCGAGCGCGTTGTTCAGTTTATTGAAGAGAATCTGAAGCGCAACATTTCTCTGGAACGTCTGGCTGAACTGGCAATGATGTCTCCTCGCTCTCTGTATAACCTGTTTGAAAAACACGCGGGCACCACCCCGAAAAATTACATCCGTAACCGTAAACTGGAGAGTATTCGTGCATGCCTGAACGATCCCTTCAGCAAATGTTCGTAGCATTACTGAAATCGCCCTGGATTATGGTTTTCTGCATCTGGGCCGTTTTGCTGAGAATTACCGTTCGGCCTTCGGCGAACTGCCGAGCGACACGCTGCGCCAGTGCAAAAAGGAAGTTGCCTGA'
p402
sg16
I2
sg17
S''
sg18
I250
sg19
(lp403
(lp404
F30.803382558942999
aF8.9440709039538433
aF10.34812584341117
aa(lp405
F0.31456338541707113
aF265.76394599709283
aF148.94053011838176
aF128.45996592495848
aa(lp406
F6960.8477599124672
aasg24
I71
sg25
F6960.8477599124672
sg26
F7554.4223446446249
sg27
g401
sg28
(lp407
(lp408
I9
aI141
aI153
aa(lp409
I7
aI43
aI79
aI226
aa(lp410
I71
aasg33
F6960.8477599124672
sbag2
(g3
g4
NtRp411
(dp412
g7
g8
(g10
S'\x00\x00\x00\x00\x00@\x9f@'
tRp413
sg12
S'LII-10-UTR_wt'
p414
sg14
S'AACATGTACCACAATAATGGAGTTTTGAACCCATGGATTTTTGCTTATTGAACGAGAAAAGTCAGATCTTCGTCCACGCCGAGCCCTATGCAGTCTCCGATTATGTTAACCAGTATGTCGGTACGCACTCTATTCGCCTGCCCAAGGGCGGGCGCCCGGCAGGCAGGCTGCACCACAGAATCTTCGGATGCCTCGACCTGTGTCGAATCAGCTACGGCGGTAGCGTGAGGGTAATCTCGCCTGGATTAGAGACCTGTTATCATCTGCAAATAATACTCAAAGGCCATTGCCTGTGGCGTGGCCATGCCCAGGAGCACTATTTTGCGCCGGGCGAACTATTGCTGCTCAATCCGGATGACCAAGCCGACCTGACCTATTCAGAAGATTGCGAGAAATTTATCGTTAAATTGCCCTCAGTGGTCCTTGATCGGGCATGCAGTGACAACAATTGGCACAAGCCGAGGGAGGGTATCCGTTTCGCCGCGCGACACAATCTCCAGCAACTCGATGGCTTTATCAATCTACTCGGGTTAGTTTGTGACGAAGCGGAACATACAAAGTCGATGCCTCGGGTCCAAGAGCACTATGCGGGGATCATCGCTTCCAAGCTGCTCGAAATGCTGGGCAGCAATGTCAGCCGTGAAATTTTCAGCAAAGGTAACCCGTCTTTCGAGCGAGTCGTTCAATTCATTGAGGAGAATCTCAAACGGAATATCAGCCTTGAGCGGTTAGCGGAGCTGGCGATGATGAGTCCACGCTCGCTCTACAATTTGTTCGAGAAGCATGCCGGCACCACGCCGAAGAACTACATCCGCAACCGCAAGCTCGAAAGCATCCGCGCCTGCTTGAACGATCCCAGTGCCAATGTGCGTAGTATAACTGAGATAGCCCTAGACTACGGCTTCTTACATTTGGGACGCTTCGCTGAAAACTATAGGAGCGCGTTCGGCGAGTTGCCTTCCGACACCCTGCGTCAATGCAAAAAGGAAGTGGCTTGA'
p415
sg16
I2
sg17
S''
sg18
I2000
sg19
(lp416
(lp417
F3.16542398613687
aF66.6174046084748
aF325.49717031248355
aF44.932247696110828
aF1.4387981192222954
aa(lp418
F802.58721553540965
aF134.11352107469637
aF28.103815087838349
aa(lp419
F2207.3361357032272
aF235.7078240026282
aasg24
I32
sg25
F2207.3361357032272
sg26
F3849.4995561262281
sg27
g414
sg28
(lp420
(lp421
I3
aI24
aI87
aI102
aI114
aa(lp422
I16
aI40
aI187
aa(lp423
I32
aI47
aasg33
F2443.0439597058553
sbag2
(g3
g4
NtRp424
(dp425
g7
g8
(g10
S'\x00\x00\x00\x00\x00\x80f@'
tRp426
sg12
S'LII-10-UTR_syn'
p427
sg14
S'AACATGTACCACAATAATGGAGTTTTGAACCCATGGACTTTTGCCTGCTGAACGAGAAGAGCCAGATTTTCGTTCACGCGGAGCCGTACGCAGTTTCGGATTATGTAAACCAGTATGTCGGAACGCACTCTATTCGTCTGCCGAAGGGCGGTCCGCCGGCAGGACGTCTGCATCATCGTATCTTCGGGTGCCTGGACCTGTGTCGCATCAGCTACGGCGGTTCTGTGCGCGTTATCTCACCAGGTCTGGAAACCTGCTATCACCTGCAAATTATCCTGAAAGGTCACTGTCTGTGGCGCGGTCATGCCCAAGAACACTACTTTGCACCGGGCGAGCTGCTGCTGCTGAACCCAGATGATCAGGCGGATCTGACGTATTCGGAGGACTGTGAAAAGTTCATCGTGAAACTGCCTAGTGTGGTTCTGGATCGTGCTTGTAGCGACAATAACTGGCACAAGCCGCGCGAAGGTATCCGCTTTGCGGCACGTCATAACCTGCAACAGCTGGATGGCTTTATCAATCTGCTGGGTCTGGTGTGCGATGAAGCCGAACACACCAAAAGCATGCCGCGTGTTCAGGAACACTATGCCGGCATCATCGCGTCAAAACTGCTGGAGATGCTGGGGAGCAACGTATCCCGTGAGATTTTCTCAAAAGGTAATCCGTCCTTCGAGCGCGTTGTTCAGTTTATTGAAGAGAATCTGAAGCGCAACATTTCTCTGGAACGTCTGGCTGAACTGGCAATGATGTCTCCTCGCTCTCTGTATAACCTGTTTGAAAAACACGCGGGCACCACCCCGAAAAATTACATCCGTAACCGTAAACTGGAGAGTATTCGTGCATGCCTGAACGATCCCTTCAGCAAATGTTCGTAGCATTACTGAAATCGCCCTGGATTATGGTTTTCTGCATCTGGGCCGTTTTGCTGAGAATTACCGTTCGGCCTTCGGCGAACTGCCGAGCGACACGCTGCGCCAGTGCAAAAAGGAAGTTGCCTGA'
p428
sg16
I2
sg17
S''
sg18
I180
sg19
(lp429
(lp430
F3.16542398613687
aF48.615109162729269
aF8.9440709039538433
aF10.34812584341117
aa(lp431
F585.70076881832165
aF18.513285207796859
aF128.45996592495848
aa(lp432
F3621.3103119784741
aasg24
I32
sg25
F3621.3103119784741
sg26
F4425.0570618257825
sg27
g427
sg28
(lp433
(lp434
I3
aI24
aI102
aI114
aa(lp435
I16
aI40
aI187
aa(lp436
I32
aasg33
F3621.3103119784741
sbag2
(g3
g4
NtRp437
(dp438
g7
g8
(g10
S'\x00\x00\x00\x00\x00@\x9f@'
tRp439
sg12
S'T7-UTR_without_His_wt'
p440
sg14
S'AGGGGAATTGTGAGCGGATAACAATTCCCCTCTAGAAATAATTTTGTTTAACTTTAAGAAGGAGATATACCATGGATTTTTGCTTATTGAACGAGAAAAGTCAGATCTTCGTCCACGCCGAGCCCTATGCAGTCTCCGATTATGTTAACCAGTATGTCGGTACGCACTCTATTCGCCTGCCCAAGGGCGGGCGCCCGGCAGGCAGGCTGCACCACAGAATCTTCGGATGCCTCGACCTGTGTCGAATCAGCTACGGCGGTAGCGTGAGGGTAATCTCGCCTGGATTAGAGACCTGTTATCATCTGCAAATAATACTCAAAGGCCATTGCCTGTGGCGTGGCCATGCCCAGGAGCACTATTTTGCGCCGGGCGAACTATTGCTGCTCAATCCGGATGACCAAGCCGACCTGACCTATTCAGAAGATTGCGAGAAATTTATCGTTAAATTGCCCTCAGTGGTCCTTGATCGGGCATGCAGTGACAACAATTGGCACAAGCCGAGGGAGGGTATCCGTTTCGCCGCGCGACACAATCTCCAGCAACTCGATGGCTTTATCAATCTACTCGGGTTAGTTTGTGACGAAGCGGAACATACAAAGTCGATGCCTCGGGTCCAAGAGCACTATGCGGGGATCATCGCTTCCAAGCTGCTCGAAATGCTGGGCAGCAATGTCAGCCGTGAAATTTTCAGCAAAGGTAACCCGTCTTTCGAGCGAGTCGTTCAATTCATTGAGGAGAATCTCAAACGGAATATCAGCCTTGAGCGGTTAGCGGAGCTGGCGATGATGAGTCCACGCTCGCTCTACAATTTGTTCGAGAAGCATGCCGGCACCACGCCGAAGAACTACATCCGCAACCGCAAGCTCGAAAGCATCCGCGCCTGCTTGAACGATCCCAGTGCCAATGTGCGTAGTATAACTGAGATAGCCCTAGACTACGGCTTCTTACATTTGGGACGCTTCGCTGAAAACTATAGGAGCGCGTTCGGCGAGTTGCCTTCCGACACCCTGCGTCAATGCAAAAAGGAAGTGGCTTGA'
p441
sg16
I2
sg17
S''
sg18
I2000
sg19
(lp442
(lp443
F30.803382558942999
aF325.49717031248355
aF44.932247696110828
aF1.4387981192222954
aa(lp444
F0.31456338541707113
aF265.76394599709283
aF213.48852905620194
aF28.103815087838349
aa(lp445
F5814.0841151012191
aF3.0942937851015992
aasg24
I71
sg25
F5814.0841151012191
sg26
F6727.5208610996306
sg27
g440
sg28
(lp446
(lp447
I9
aI126
aI141
aI153
aa(lp448
I7
aI43
aI79
aI226
aa(lp449
I71
aI86
aasg33
F5817.1784088863205
sbag2
(g3
g4
NtRp450
(dp451
g7
g8
(g10
S'\x00\x00\x00\x00\x00@\x9f@'
tRp452
sg12
S'H39-UTR_wt'
p453
sg14
S'ACATGTACCATAATAATGGAGTCTTGAACCCATGGATTTTTGCTTATTGAACGAGAAAAGTCAGATCTTCGTCCACGCCGAGCCCTATGCAGTCTCCGATTATGTTAACCAGTATGTCGGTACGCACTCTATTCGCCTGCCCAAGGGCGGGCGCCCGGCAGGCAGGCTGCACCACAGAATCTTCGGATGCCTCGACCTGTGTCGAATCAGCTACGGCGGTAGCGTGAGGGTAATCTCGCCTGGATTAGAGACCTGTTATCATCTGCAAATAATACTCAAAGGCCATTGCCTGTGGCGTGGCCATGCCCAGGAGCACTATTTTGCGCCGGGCGAACTATTGCTGCTCAATCCGGATGACCAAGCCGACCTGACCTATTCAGAAGATTGCGAGAAATTTATCGTTAAATTGCCCTCAGTGGTCCTTGATCGGGCATGCAGTGACAACAATTGGCACAAGCCGAGGGAGGGTATCCGTTTCGCCGCGCGACACAATCTCCAGCAACTCGATGGCTTTATCAATCTACTCGGGTTAGTTTGTGACGAAGCGGAACATACAAAGTCGATGCCTCGGGTCCAAGAGCACTATGCGGGGATCATCGCTTCCAAGCTGCTCGAAATGCTGGGCAGCAATGTCAGCCGTGAAATTTTCAGCAAAGGTAACCCGTCTTTCGAGCGAGTCGTTCAATTCATTGAGGAGAATCTCAAACGGAATATCAGCCTTGAGCGGTTAGCGGAGCTGGCGATGATGAGTCCACGCTCGCTCTACAATTTGTTCGAGAAGCATGCCGGCACCACGCCGAAGAACTACATCCGCAACCGCAAGCTCGAAAGCATCCGCGCCTGCTTGAACGATCCCAGTGCCAATGTGCGTAGTATAACTGAGATAGCCCTAGACTACGGCTTCTTACATTTGGGACGCTTCGCTGAAAACTATAGGAGCGCGTTCGGCGAGTTGCCTTCCGACACCCTGCGTCAATGCAAAAAGGAAGTGGCTTGA'
p454
sg16
I1
sg17
S''
sg18
I2000
sg19
(lp455
(lp456
F670.36512530859102
aF128.21161141592938
aF28.103815087838349
aa(lp457
F1539.9507207928286
aF235.7078240026282
aa(lp458
F1.5406662752454872
aF40.606021520069923
aF325.49717031248355
aF44.932247696110828
aF1.4387981192222954
aasg24
I31
sg25
F1539.9507207928286
sg26
F3016.3540005309478
sg27
g453
sg28
(lp459
(lp460
I15
aI39
aI186
aa(lp461
I31
aI46
aa(lp462
I2
aI23
aI86
aI101
aI113
aasg33
F1775.6585447954569
sbag2
(g3
g4
NtRp463
(dp464
g7
g8
(g10
S'\x00\x00\x00\x00\x00@\x9f@'
tRp465
sg12
S'T7-UTR_syn'
p466
sg14
S'AGGGGAATTGTGAGCGGATAACAATTCCCCTCTAGAAATAATTTTGTTTAACTTTAAGAAGGAGATATACCATGGGCCATCATCATCATCATCATCATCATCATCACAGCAGCGGCCATATCGAAGGTCGTCCCATGGACTTTTGCCTGCTGAACGAGAAGAGCCAGATTTTCGTTCACGCGGAGCCGTACGCAGTTTCGGATTATGTAAACCAGTATGTCGGAACGCACTCTATTCGTCTGCCGAAGGGCGGTCCGCCGGCAGGACGTCTGCATCATCGTATCTTCGGGTGCCTGGACCTGTGTCGCATCAGCTACGGCGGTTCTGTGCGCGTTATCTCACCAGGTCTGGAAACCTGCTATCACCTGCAAATTATCCTGAAAGGTCACTGTCTGTGGCGCGGTCATGCCCAAGAACACTACTTTGCACCGGGCGAGCTGCTGCTGCTGAACCCAGATGATCAGGCGGATCTGACGTATTCGGAGGACTGTGAAAAGTTCATCGTGAAACTGCCTAGTGTGGTTCTGGATCGTGCTTGTAGCGACAATAACTGGCACAAGCCGCGCGAAGGTATCCGCTTTGCGGCACGTCATAACCTGCAACAGCTGGATGGCTTTATCAATCTGCTGGGTCTGGTGTGCGATGAAGCCGAACACACCAAAAGCATGCCGCGTGTTCAGGAACACTATGCCGGCATCATCGCGTCAAAACTGCTGGAGATGCTGGGGAGCAACGTATCCCGTGAGATTTTCTCAAAAGGTAATCCGTCCTTCGAGCGCGTTGTTCAGTTTATTGAAGAGAATCTGAAGCGCAACATTTCTCTGGAACGTCTGGCTGAACTGGCAATGATGTCTCCTCGCTCTCTGTATAACCTGTTTGAAAAACACGCGGGCACCACCCCGAAAAATTACATCCGTAACCGTAAACTGGAGAGTATTCGTGCATGCCTGAACGATCCCTTCAGCAAATGTTCGTAGCATTACTGAAATCGCCCTGGATTATGGTTTTCTGCATCTGGGCCGTTTTGCTGAGAATTACCGTTCGGCCTTCGGCGAACTGCCGAGCGACACGCTGCGCCAGTGCAAAAAGGAAGTTGCCTGA'
p467
sg16
I2
sg17
S''
sg18
I2000
sg19
(lp468
(lp469
F30.803382558942999
aF11.20111521571366
aF176.28269953073243
aa(lp470
F0.31456338541707113
aF265.76394599709283
aF4.7987409441248046
aa(lp471
F118579.63970559194
aF39.564788317279579
aasg24
I71
sg25
F118579.63970559194
sg26
F119108.36894154124
sg27
g466
sg28
(lp472
(lp473
I9
aI204
aI216
aa(lp474
I7
aI43
aI142
aa(lp475
I71
aI134
aasg33
F118619.20449390922
sba.